(lp0
(lp1
a(lp2
a(lp3
S'817'
p4
aS'74'
p5
aa(lp6
S'29'
p7
aS'43'
p8
aa(lp9
S'407'
p10
aS'1112'
p11
aS'24'
p12
aa(lp13
S'502'
p14
aS'1035'
p15
aa(lp16
S'50'
p17
aS'1206'
p18
aS'486'
p19
aS'1040'
p20
aS'1045'
p21
aS'1180'
p22
aS'44'
p23
aa(lp24
S'483'
p25
aS'475'
p26
aa(lp27
a(lp28
S'29'
p29
aS'31'
p30
aa(lp31
S'54'
p32
aS'57'
p33
aS'61'
p34
aa(lp35
S'364'
p36
aS'382'
p37
aS'389'
p38
aS'164'
p39
aS'817'
p40
aS'237'
p41
aS'200'
p42
aS'401'
p43
aS'483'
p44
aS'482'
p45
aS'77'
p46
aS'8'
p47
aS'312'
p48
aS'314'
p49
aS'307'
p50
aS'336'
p51
aS'85'
p52
aS'322'
p53
aS'323'
p54
aS'326'
p55
aS'123'
p56
aS'355'
p57
aS'354'
p58
aS'114'
p59
aS'476'
p60
aa(lp61
S'75'
p62
aS'358'
p63
aa(lp64
S'326'
p65
aa(lp66
S'503'
p67
aa(lp68
S'54'
p69
aS'1'
p70
aS'782'
p71
aS'749'
p72
aS'499'
p73
aS'29'
p74
aS'79'
p75
aS'120'
p76
aa(lp77
S'816'
p78
aS'1058'
p79
aS'1260'
p80
aS'1164'
p81
aa(lp82
S'790'
p83
aS'590'
p84
aa(lp85
S'189'
p86
aS'33'
p87
aa(lp88
S'290'
p89
aS'1113'
p90
aS'857'
p91
aS'1187'
p92
aa(lp93
S'621'
p94
aS'379'
p95
aS'365'
p96
aS'384'
p97
aS'1498'
p98
aS'1014'
p99
aS'15'
p100
aS'838'
p101
aS'196'
p102
aS'72'
p103
aS'1313'
p104
aS'1405'
p105
aS'323'
p106
aS'1359'
p107
aS'1518'
p108
aS'352'
p109
aS'351'
p110
aS'1638'
p111
aS'2121'
p112
aa(lp113
S'550'
p114
aS'1280'
p115
aS'251'
p116
aS'628'
p117
aS'646'
p118
aS'1964'
p119
aS'1966'
p120
aS'1963'
p121
aS'1978'
p122
aS'1948'
p123
aS'1949'
p124
aS'1934'
p125
aS'2112'
p126
aS'3090'
p127
aS'3085'
p128
aS'1988'
p129
aa(lp130
S'526'
p131
aS'791'
p132
aS'1001'
p133
aS'1038'
p134
aS'615'
p135
aS'1045'
p136
aS'1026'
p137
aS'997'
p138
aS'980'
p139
aS'723'
p140
aS'728'
p141
aa(lp142
S'1289'
p143
aS'628'
p144
aS'1228'
p145
aS'1040'
p146
aS'306'
p147
aS'1792'
p148
aS'336'
p149
aS'739'
p150
aS'355'
p151
aS'351'
p152
aa(lp153
a(lp154
S'852'
p155
aa(lp156
S'544'
p157
aS'487'
p158
aS'483'
p159
aS'646'
p160
aa(lp161
S'1199'
p162
aS'900'
p163
aS'522'
p164
aS'1371'
p165
aS'1113'
p166
aS'486'
p167
aS'86'
p168
aS'1423'
p169
aS'2842'
p170
aa(lp171
S'348'
p172
aS'454'
p173
aS'536'
p174
aS'613'
p175
aS'66'
p176
aS'1023'
p177
aS'856'
p178
aS'595'
p179
aS'1097'
p180
aS'596'
p181
aS'587'
p182
aS'3033'
p183
aS'3029'
p184
aS'2539'
p185
aS'2710'
p186
aS'3045'
p187
aS'3092'
p188
aS'3090'
p189
aS'3089'
p190
aa(lp191
S'800'
p192
aS'1001'
p193
aS'23'
p194
aS'865'
p195
aS'988'
p196
aS'980'
p197
aS'2533'
p198
aS'2709'
p199
aS'2705'
p200
aS'2771'
p201
aS'2602'
p202
aS'2802'
p203
aS'2785'
p204
aa(lp205
S'25'
p206
aS'27'
p207
aS'31'
p208
aS'48'
p209
aa(lp210
S'96'
p211
aS'400'
p212
aS'176'
p213
aS'169'
p214
aS'163'
p215
aS'1155'
p216
aS'427'
p217
aS'439'
p218
aS'200'
p219
aS'832'
p220
aS'401'
p221
aS'847'
p222
aS'1114'
p223
aS'483'
p224
aS'199'
p225
aS'421'
p226
aS'851'
p227
aS'852'
p228
aS'496'
p229
aS'970'
p230
aS'645'
p231
aS'30'
p232
aS'646'
p233
aS'326'
p234
aS'729'
p235
aS'355'
p236
aS'350'
p237
aS'283'
p238
aS'282'
p239
aS'478'
p240
aS'2924'
p241
aa(lp242
S'348'
p243
aS'552'
p244
aS'252'
p245
aS'1272'
p246
aS'600'
p247
aS'608'
p248
aS'869'
p249
aS'865'
p250
aS'775'
p251
aS'1266'
p252
aS'632'
p253
aS'642'
p254
aS'645'
p255
aS'768'
p256
aS'1412'
p257
aS'959'
p258
aS'958'
p259
aS'1263'
p260
aS'1265'
p261
aS'1402'
p262
aS'1245'
p263
aS'648'
p264
aS'1260'
p265
aS'1425'
p266
aS'730'
p267
aS'1357'
p268
aS'582'
p269
aS'793'
p270
aS'2693'
p271
aS'2186'
p272
aS'3025'
p273
aS'3024'
p274
aS'2229'
p275
aS'2536'
p276
aS'2239'
p277
aS'2230'
p278
aS'2702'
p279
aS'2571'
p280
aS'2560'
p281
aS'2806'
p282
aS'2255'
p283
aa(lp284
S'1145'
p285
aS'817'
p286
ag70
aS'11'
p287
aS'14'
p288
aS'19'
p289
aS'1699'
p290
aS'24'
p291
aS'21'
p292
aS'731'
p293
aa(lp294
S'11'
p295
aS'200'
p296
aS'507'
p297
aS'401'
p298
aS'1036'
p299
aS'503'
p300
aS'1352'
p301
aS'499'
p302
aS'29'
p303
ag47
aS'33'
p304
aS'32'
p305
aS'31'
p306
aS'328'
p307
aS'48'
p308
aS'49'
p309
aa(lp310
S'1009'
p311
aS'783'
p312
aS'859'
p313
aS'974'
p314
aS'973'
p315
aS'860'
p316
aS'1430'
p317
aS'1425'
p318
aS'986'
p319
aS'1181'
p320
aS'2823'
p321
aS'2832'
p322
aa(lp323
S'383'
p324
aS'2'
p325
aS'19'
p326
aS'1581'
p327
aS'865'
p328
aS'316'
p329
aS'962'
p330
aS'1248'
p331
aS'31'
p332
aS'336'
p333
aS'722'
p334
aS'353'
p335
aa(lp336
a(lp337
a(lp338
a(lp339
a(lp340
a(lp341
a(lp342
a(lp343
a(lp344
a(lp345
a(lp346
a(lp347
a(lp348
a(lp349
a(lp350
a(lp351
a(lp352
a(lp353
a(lp354
a(lp355
a(lp356
a(lp357
a(lp358
a(lp359
a(lp360
a(lp361
a(lp362
a(lp363
a(lp364
a(lp365
a(lp366
a(lp367
a(lp368
a(lp369
a(lp370
a(lp371
a(lp372
a(lp373
a(lp374
a(lp375
a(lp376
a(lp377
a(lp378
a(lp379
a(lp380
a(lp381
a(lp382
a(lp383
a(lp384
a(lp385
a(lp386
a(lp387
a(lp388
a(lp389
a(lp390
a(lp391
a(lp392
a(lp393
a(lp394
a(lp395
a(lp396
a(lp397
a(lp398
a(lp399
a(lp400
a(lp401
a(lp402
a(lp403
a(lp404
a(lp405
a(lp406
a(lp407
a(lp408
a(lp409
a(lp410
a(lp411
a(lp412
a(lp413
a(lp414
a(lp415
a(lp416
a(lp417
a(lp418
a(lp419
a(lp420
a(lp421
a(lp422
a(lp423
a(lp424
a(lp425
a(lp426
a(lp427
a(lp428
a(lp429
a(lp430
S'1543'
p431
aS'1423'
p432
aa(lp433
S'1374'
p434
aS'1417'
p435
aS'998'
p436
aS'2238'
p437
aa(lp438
S'1198'
p439
aS'1150'
p440
aS'1152'
p441
aS'1129'
p442
aS'1126'
p443
aS'1136'
p444
aS'1053'
p445
aS'615'
p446
aS'961'
p447
aS'335'
p448
aS'1183'
p449
aS'1169'
p450
aa(lp451
S'1124'
p452
aS'1277'
p453
aS'1301'
p454
aS'1320'
p455
aa(lp456
S'1175'
p457
aS'1155'
p458
aS'1152'
p459
aS'816'
p460
aS'1124'
p461
aS'1053'
p462
aS'1063'
p463
aS'1086'
p464
aS'1161'
p465
aS'1991'
p466
aS'1940'
p467
aS'1953'
p468
aS'1929'
p469
aS'1939'
p470
aS'1871'
p471
aS'2000'
p472
aa(lp473
S'1261'
p474
aS'1097'
p475
aS'1560'
p476
aS'1201'
p477
aa(lp478
S'1543'
p479
aS'1333'
p480
aS'1522'
p481
aS'1502'
p482
aa(lp483
S'1151'
p484
aS'796'
p485
aS'1211'
p486
aS'1100'
p487
aS'1205'
p488
aS'1113'
p489
aS'1456'
p490
aS'1243'
p491
aS'1434'
p492
aS'1340'
p493
aS'1180'
p494
aS'1164'
p495
aS'1864'
p496
aa(lp497
S'1132'
p498
aS'1622'
p499
aS'1176'
p500
aS'1172'
p501
aS'1179'
p502
aS'1178'
p503
aS'1146'
p504
aS'1144'
p505
aS'1148'
p506
aS'1380'
p507
aS'1084'
p508
aS'1158'
p509
aS'1157'
p510
aS'1151'
p511
aS'1150'
p512
aS'225'
p513
aS'816'
p514
aS'1129'
p515
aS'1120'
p516
aS'1125'
p517
aS'1126'
p518
aS'1127'
p519
aS'526'
p520
aS'790'
p521
aS'1133'
p522
aS'1130'
p523
aS'1136'
p524
aS'838'
p525
aS'1102'
p526
aS'1587'
p527
aS'600'
p528
aS'1846'
p529
aS'617'
p530
aS'615'
p531
aS'973'
p532
aS'888'
p533
aS'1047'
p534
aS'1048'
p535
aS'1867'
p536
aS'872'
p537
aS'1096'
p538
aS'1086'
p539
aS'1088'
p540
aS'992'
p541
aS'1644'
p542
aS'1642'
p543
aS'1633'
p544
aS'1168'
p545
aS'1169'
p546
aS'1201'
p547
aS'1814'
p548
aS'1817'
p549
aS'1942'
p550
aS'1929'
p551
aS'1857'
p552
aS'1933'
p553
aS'1847'
p554
aS'1876'
p555
aS'1870'
p556
aS'2299'
p557
aS'1884'
p558
aa(lp559
S'652'
p560
aS'1380'
p561
aS'536'
p562
aS'627'
p563
aS'1458'
p564
aS'1266'
p565
aS'586'
p566
aS'587'
p567
aS'585'
p568
aS'1166'
p569
aS'3039'
p570
aS'3030'
p571
aS'3031'
p572
aS'3029'
p573
aS'3025'
p574
aS'3064'
p575
aS'3070'
p576
aS'3062'
p577
aS'3061'
p578
aS'3067'
p579
aS'3068'
p580
aS'3053'
p581
aS'3051'
p582
aS'3049'
p583
aS'3040'
p584
aS'3044'
p585
aS'3047'
p586
aS'3093'
p587
aS'3085'
p588
aS'3074'
p589
aa(lp590
S'1148'
p591
aS'1512'
p592
aS'1298'
p593
aS'1299'
p594
aS'1201'
p595
aS'2794'
p596
aa(lp597
S'340'
p598
aS'342'
p599
aS'291'
p600
aS'106'
p601
aS'550'
p602
aS'1288'
p603
aS'1143'
p604
aS'414'
p605
aS'1098'
p606
aS'818'
p607
aS'810'
p608
aS'814'
p609
aS'829'
p610
aS'1139'
p611
aS'638'
p612
aS'844'
p613
aS'662'
p614
aS'715'
p615
aS'864'
p616
aS'300'
p617
aS'1087'
p618
aS'1349'
p619
aS'578'
p620
aS'984'
p621
aS'720'
p622
aS'721'
p623
aS'2995'
p624
aS'3029'
p625
aS'3025'
p626
aS'3006'
p627
aS'2957'
p628
aS'2952'
p629
aS'2964'
p630
aS'2960'
p631
aa(lp632
S'1004'
p633
aS'1624'
p634
aS'1007'
p635
aS'1145'
p636
aS'692'
p637
aS'900'
p638
aS'1098'
p639
aS'808'
p640
aS'802'
p641
aS'807'
p642
aS'804'
p643
aS'1157'
p644
aS'813'
p645
aS'814'
p646
aS'1015'
p647
aS'1001'
p648
aS'929'
p649
aS'832'
p650
aS'833'
p651
aS'836'
p652
aS'835'
p653
aS'780'
p654
aS'1038'
p655
aS'1101'
p656
aS'913'
p657
aS'751'
p658
aS'1034'
p659
aS'1058'
p660
aS'886'
p661
aS'775'
p662
aS'774'
p663
aS'1047'
p664
aS'897'
p665
aS'958'
p666
aS'649'
p667
aS'946'
p668
aS'991'
p669
aS'992'
p670
aS'1291'
p671
aS'980'
p672
aS'986'
p673
aS'721'
p674
aS'46'
p675
aS'2688'
p676
aS'2689'
p677
aS'2684'
p678
aS'2686'
p679
aS'2687'
p680
aS'2681'
p681
aS'2683'
p682
aS'2868'
p683
aS'2869'
p684
aS'2742'
p685
aS'2744'
p686
aS'2699'
p687
aS'2696'
p688
aS'2695'
p689
aS'2873'
p690
aS'2871'
p691
aS'2870'
p692
aS'2877'
p693
aS'2876'
p694
aS'2874'
p695
aS'2878'
p696
aS'2791'
p697
aS'2734'
p698
aS'2731'
p699
aS'2797'
p700
aS'2849'
p701
aS'2846'
p702
aS'2843'
p703
aS'2840'
p704
aS'2841'
p705
aS'3030'
p706
aS'3031'
p707
aS'2728'
p708
aS'2851'
p709
aS'2852'
p710
aS'3029'
p711
aS'2983'
p712
aS'3064'
p713
aS'2710'
p714
aS'2714'
p715
aS'2792'
p716
aS'2883'
p717
aS'2880'
p718
aS'2881'
p719
aS'2886'
p720
aS'2884'
p721
aS'2885'
p722
aS'2888'
p723
aS'2889'
p724
aS'2709'
p725
aS'2705'
p726
aS'2707'
p727
aS'2706'
p728
aS'2701'
p729
aS'2700'
p730
aS'3008'
p731
aS'2898'
p732
aS'2895'
p733
aS'2894'
p734
aS'2891'
p735
aS'2893'
p736
aS'2609'
p737
aS'2955'
p738
aS'2956'
p739
aS'2957'
p740
aS'2950'
p741
aS'2951'
p742
aS'2952'
p743
aS'2953'
p744
aS'2764'
p745
aS'2615'
p746
aS'3067'
p747
aS'2948'
p748
aS'2946'
p749
aS'2942'
p750
aS'2941'
p751
aS'2940'
p752
aS'2622'
p753
aS'2624'
p754
aS'2625'
p755
aS'2628'
p756
aS'2825'
p757
aS'2970'
p758
aS'2759'
p759
aS'2638'
p760
aS'2634'
p761
aS'2746'
p762
aS'2965'
p763
aS'2964'
p764
aS'2967'
p765
aS'2966'
p766
aS'2961'
p767
aS'2960'
p768
aS'2963'
p769
aS'2962'
p770
aS'2968'
p771
aS'3042'
p772
aS'2642'
p773
aS'2912'
p774
aS'2915'
p775
aS'2917'
p776
aS'2919'
p777
aS'2823'
p778
aS'2651'
p779
aS'2650'
p780
aS'2656'
p781
aS'2907'
p782
aS'2905'
p783
aS'2909'
p784
aS'2839'
p785
aS'2838'
p786
aS'2837'
p787
aS'2835'
p788
aS'2831'
p789
aS'2959'
p790
aS'2667'
p791
aS'2660'
p792
aS'2938'
p793
aS'2939'
p794
aS'2936'
p795
aS'2937'
p796
aS'2933'
p797
aS'2931'
p798
aS'2809'
p799
aS'2806'
p800
aS'2805'
p801
aS'2785'
p802
aS'2787'
p803
aS'2786'
p804
aS'2788'
p805
aS'2929'
p806
aS'2928'
p807
aS'2920'
p808
aS'2923'
p809
aS'2922'
p810
aS'2925'
p811
aS'2927'
p812
aS'2926'
p813
aS'2817'
p814
aS'2810'
p815
aS'2819'
p816
aa(lp817
S'1198'
p818
aS'1196'
p819
aS'1177'
p820
aS'1173'
p821
aS'624'
p822
aS'1090'
p823
aS'1158'
p824
aS'1150'
p825
aS'530'
p826
aS'817'
p827
aS'790'
p828
aS'1137'
p829
aS'1002'
p830
aS'834'
p831
aS'783'
p832
aS'1102'
p833
aS'1114'
p834
aS'196'
p835
aS'1279'
p836
aS'976'
p837
aS'1081'
p838
aS'868'
p839
aS'864'
p840
aS'774'
p841
aS'314'
p842
aS'631'
p843
aS'572'
p844
aS'984'
p845
aS'1189'
p846
aS'1182'
p847
aS'1183'
p848
aS'1164'
p849
aS'2699'
p850
aS'1966'
p851
aS'2870'
p852
aS'2843'
p853
aS'1949'
p854
aS'1940'
p855
aS'3025'
p856
aS'2793'
p857
aS'2886'
p858
aS'2887'
p859
aS'2884'
p860
aS'2885'
p861
aS'2889'
p862
aS'2893'
p863
aS'1937'
p864
aS'3027'
p865
aS'1869'
p866
aS'2910'
p867
aS'2919'
p868
aS'1885'
p869
aS'2796'
p870
aS'2932'
p871
aS'2929'
p872
aS'1989'
p873
aS'2812'
p874
aa(lp875
S'1343'
p876
aS'416'
p877
aS'382'
p878
aS'389'
p879
aS'427'
p880
aS'1491'
p881
aS'1704'
p882
aS'502'
p883
aS'401'
p884
aS'1034'
p885
aS'634'
p886
aS'488'
p887
aS'1058'
p888
aS'864'
p889
aS'316'
p890
aS'1095'
p891
aS'325'
p892
aS'1518'
p893
aS'475'
p894
aS'1967'
p895
aS'1942'
p896
aS'1947'
p897
aS'1929'
p898
aS'2068'
p899
aa(lp900
S'540'
p901
aS'1804'
p902
aS'423'
p903
aS'1691'
p904
aS'1008'
p905
aS'1596'
p906
aS'1682'
p907
aS'1097'
p908
aS'445'
p909
aS'266'
p910
aS'983'
p911
aS'1161'
p912
aS'2704'
p913
aS'2634'
p914
aS'2928'
p915
aa(lp916
S'1193'
p917
aS'486'
p918
aS'484'
p919
aS'483'
p920
aS'6'
p921
aS'618'
p922
aS'958'
p923
aS'453'
p924
aS'3029'
p925
aS'3092'
p926
aS'3086'
p927
aa(lp928
S'698'
p929
aS'535'
p930
aS'921'
p931
aS'782'
p932
aS'1119'
p933
aS'615'
p934
aS'1257'
p935
aS'2594'
p936
aS'2596'
p937
aS'2622'
p938
aS'2638'
p939
aS'2635'
p940
aS'2823'
p941
aS'2650'
p942
aS'2837'
p943
aS'2815'
p944
aS'2813'
p945
aS'2812'
p946
aa(lp947
S'1154'
p948
aS'1127'
p949
aa(lp950
S'624'
p951
aS'1143'
p952
aS'1145'
p953
aS'1148'
p954
aS'692'
p955
aS'698'
p956
aS'804'
p957
aS'1157'
p958
aS'1151'
p959
aS'1153'
p960
aS'818'
p961
aS'810'
p962
aS'1126'
p963
aS'825'
p964
aS'1228'
p965
aS'785'
p966
aS'786'
p967
aS'1212'
p968
aS'663'
p969
aS'1217'
p970
aS'741'
p971
aS'1058'
p972
aS'715'
p973
aS'970'
p974
aS'869'
p975
aS'774'
p976
aS'1266'
p977
aS'661'
p978
aS'630'
p979
aS'1412'
p980
aS'1256'
p981
aS'1255'
p982
aS'959'
p983
aS'958'
p984
aS'587'
p985
aS'1292'
p986
aS'991'
p987
aS'988'
p988
aS'986'
p989
aS'720'
p990
aS'721'
p991
aS'1160'
p992
aS'793'
p993
aS'1367'
p994
aS'2687'
p995
aS'2683'
p996
aS'2742'
p997
aS'2744'
p998
aS'2696'
p999
aS'2693'
p1000
aS'2690'
p1001
aS'2872'
p1002
aS'2870'
p1003
aS'2876'
p1004
aS'2875'
p1005
aS'2879'
p1006
aS'2878'
p1007
aS'2848'
p1008
aS'2849'
p1009
aS'2847'
p1010
aS'2844'
p1011
aS'2995'
p1012
aS'3030'
p1013
aS'2850'
p1014
aS'2855'
p1015
aS'3025'
p1016
aS'2985'
p1017
aS'2227'
p1018
aS'2711'
p1019
aS'2715'
p1020
aS'2883'
p1021
aS'2888'
p1022
aS'2889'
p1023
aS'2705'
p1024
aS'2703'
p1025
aS'2702'
p1026
aS'3005'
p1027
aS'3004'
p1028
aS'3007'
p1029
aS'3006'
p1030
aS'2894'
p1031
aS'2551'
p1032
aS'2771'
p1033
aS'2772'
p1034
aS'2774'
p1035
aS'2958'
p1036
aS'2955'
p1037
aS'2957'
p1038
aS'2951'
p1039
aS'2953'
p1040
aS'2762'
p1041
aS'2760'
p1042
aS'2948'
p1043
aS'2946'
p1044
aS'2942'
p1045
aS'2941'
p1046
aS'2597'
p1047
aS'2973'
p1048
aS'2980'
p1049
aS'2756'
p1050
aS'2754'
p1051
aS'2752'
p1052
aS'2751'
p1053
aS'2759'
p1054
aS'2964'
p1055
aS'2961'
p1056
aS'2963'
p1057
aS'2962'
p1058
aS'2968'
p1059
aS'3043'
p1060
aS'1891'
p1061
aS'2919'
p1062
aS'3092'
p1063
aS'2901'
p1064
aS'2907'
p1065
aS'2906'
p1066
aS'2839'
p1067
aS'2836'
p1068
aS'2830'
p1069
aS'3089'
p1070
aS'2799'
p1071
aS'2667'
p1072
aS'2661'
p1073
aS'2938'
p1074
aS'2936'
p1075
aS'2934'
p1076
aS'2932'
p1077
aS'2933'
p1078
aS'2931'
p1079
aS'2808'
p1080
aS'2787'
p1081
aS'2670'
p1082
aS'2929'
p1083
aS'2921'
p1084
aS'2924'
p1085
aS'2927'
p1086
aS'2817'
p1087
aS'2810'
p1088
aa(lp1089
S'272'
p1090
aS'1173'
p1091
aS'1148'
p1092
aS'1149'
p1093
aS'1091'
p1094
aS'1157'
p1095
aS'1156'
p1096
aS'530'
p1097
aS'1123'
p1098
aS'1125'
p1099
aS'1130'
p1100
aS'1008'
p1101
aS'1038'
p1102
aS'401'
p1103
aS'846'
p1104
aS'1025'
p1105
aS'1031'
p1106
aS'1022'
p1107
aS'1036'
p1108
aS'1058'
p1109
aS'618'
p1110
aS'888'
p1111
aS'1046'
p1112
aS'1048'
p1113
aS'876'
p1114
aS'870'
p1115
aS'1072'
p1116
aS'1094'
p1117
aS'1063'
p1118
aS'1064'
p1119
aS'1434'
p1120
aS'1424'
p1121
aS'1429'
p1122
aS'1180'
p1123
aS'1164'
p1124
aS'1161'
p1125
aS'3029'
p1126
aS'2707'
p1127
aS'2542'
p1128
aS'2540'
p1129
aS'2575'
p1130
aS'2598'
p1131
aS'2583'
p1132
aS'2588'
p1133
aa(lp1134
S'1170'
p1135
aS'1148'
p1136
aS'1159'
p1137
aS'534'
p1138
aS'439'
p1139
aS'780'
p1140
aS'64'
p1141
aS'1103'
p1142
aS'1110'
p1143
aS'615'
p1144
aS'76'
p1145
ag47
aS'678'
p1146
aS'980'
p1147
aa(lp1148
S'1152'
p1149
aS'1138'
p1150
aS'1228'
p1151
aS'401'
p1152
aS'1103'
p1153
aS'1217'
p1154
aS'858'
p1155
aS'869'
p1156
aS'775'
p1157
aS'1462'
p1158
aS'982'
p1159
aS'983'
p1160
aS'562'
p1161
aS'1186'
p1162
aS'1166'
p1163
aS'1364'
p1164
aS'2729'
p1165
aS'2709'
p1166
aS'2952'
p1167
aS'2907'
p1168
aa(lp1169
S'1004'
p1170
aS'514'
p1171
aS'544'
p1172
aS'381'
p1173
aS'252'
p1174
aS'1153'
p1175
aS'439'
p1176
aS'145'
p1177
aS'1102'
p1178
aS'1024'
p1179
aS'1036'
p1180
aS'958'
p1181
aS'593'
p1182
aS'1201'
p1183
aS'2735'
p1184
aS'2736'
p1185
aS'2730'
p1186
aS'2731'
p1187
aS'2727'
p1188
aS'2725'
p1189
aS'2724'
p1190
aS'2723'
p1191
aS'2728'
p1192
aS'2710'
p1193
aS'2714'
p1194
aS'2793'
p1195
aS'2709'
p1196
aS'2700'
p1197
aS'2703'
p1198
aS'2702'
p1199
aS'2777'
p1200
aS'2601'
p1201
aS'2602'
p1202
aS'2769'
p1203
aS'2763'
p1204
aS'2765'
p1205
aS'2754'
p1206
aS'2752'
p1207
aS'2635'
p1208
aS'2636'
p1209
aS'2740'
p1210
aS'2746'
p1211
aS'2648'
p1212
aS'2649'
p1213
aS'2645'
p1214
aS'2647'
p1215
aS'2653'
p1216
aS'2650'
p1217
aS'2799'
p1218
aS'2664'
p1219
aS'2665'
p1220
aS'2800'
p1221
aS'2789'
p1222
aa(lp1223
S'1768'
p1224
aS'1763'
p1225
aS'1764'
p1226
aS'1810'
p1227
aS'1819'
p1228
aS'1602'
p1229
aS'1807'
p1230
aS'1801'
p1231
aS'1808'
p1232
aS'1822'
p1233
aS'1730'
p1234
aS'1732'
p1235
aS'1597'
p1236
aS'1791'
p1237
aS'1507'
p1238
aS'1835'
p1239
aS'1796'
p1240
aS'1744'
p1241
aS'1712'
p1242
aa(lp1243
S'1758'
p1244
aS'1739'
p1245
aS'1323'
p1246
aS'1521'
p1247
aa(lp1248
S'1758'
p1249
aS'1548'
p1250
aS'1685'
p1251
aS'1522'
p1252
aS'1423'
p1253
aS'1517'
p1254
aS'1715'
p1255
aa(lp1256
S'1601'
p1257
aS'1557'
p1258
aS'1834'
p1259
aa(lp1260
S'1780'
p1261
aS'1759'
p1262
aS'1755'
p1263
aS'1754'
p1264
aS'1753'
p1265
aS'1752'
p1266
aS'1751'
p1267
aS'1750'
p1268
aS'1766'
p1269
aS'1765'
p1270
aS'1810'
p1271
aS'1819'
p1272
aS'1703'
p1273
aS'1830'
p1274
aS'1822'
p1275
aS'1729'
p1276
aS'1853'
p1277
aS'1739'
p1278
aS'1730'
p1279
aS'1732'
p1280
aS'1737'
p1281
aS'1591'
p1282
aS'607'
p1283
aS'1846'
p1284
aS'1305'
p1285
aS'1520'
p1286
aS'1537'
p1287
aS'1640'
p1288
aS'1748'
p1289
aS'1744'
p1290
aS'1745'
p1291
aS'1747'
p1292
aS'1740'
p1293
aS'1713'
p1294
aS'1711'
p1295
aa(lp1296
S'227'
p1297
aS'813'
p1298
aS'1139'
p1299
aS'844'
p1300
aS'1206'
p1301
aS'445'
p1302
aS'358'
p1303
aa(lp1304
S'1620'
p1305
aS'1764'
p1306
aS'1723'
p1307
aS'196'
p1308
aS'1841'
p1309
aS'1698'
p1310
aS'1867'
p1311
aS'1735'
p1312
aS'1350'
p1313
aa(lp1314
S'1750'
p1315
aS'1763'
p1316
aS'1766'
p1317
aS'1834'
p1318
aS'1301'
p1319
aS'1687'
p1320
aS'1665'
p1321
aS'1538'
p1322
aS'1882'
p1323
aS'1735'
p1324
aS'1749'
p1325
aS'1420'
p1326
aS'1637'
p1327
aS'1748'
p1328
aS'1747'
p1329
aS'1740'
p1330
aS'1741'
p1331
aa(lp1332
S'1193'
p1333
aS'1758'
p1334
aS'624'
p1335
aS'1378'
p1336
aS'1346'
p1337
aS'1145'
p1338
aS'1149'
p1339
aS'1386'
p1340
aS'1091'
p1341
aS'1818'
p1342
aS'1805'
p1343
aS'1801'
p1344
aS'1392'
p1345
aS'1259'
p1346
aS'1834'
p1347
aS'1697'
p1348
aS'1488'
p1349
aS'1131'
p1350
aS'1001'
p1351
aS'1829'
p1352
aS'1823'
p1353
aS'925'
p1354
aS'1729'
p1355
aS'1210'
p1356
aS'1211'
p1357
aS'1104'
p1358
aS'1102'
p1359
aS'1101'
p1360
aS'1108'
p1361
aS'1850'
p1362
aS'1738'
p1363
aS'1203'
p1364
aS'1110'
p1365
aS'1448'
p1366
aS'1842'
p1367
aS'858'
p1368
aS'1058'
p1369
aS'716'
p1370
aS'1271'
p1371
aS'1301'
p1372
aS'1302'
p1373
aS'1309'
p1374
aS'1877'
p1375
aS'888'
p1376
aS'1680'
p1377
aS'1686'
p1378
aS'1261'
p1379
aS'1266'
p1380
aS'872'
p1381
aS'1072'
p1382
aS'1092'
p1383
aS'1064'
p1384
aS'1241'
p1385
aS'649'
p1386
aS'1026'
p1387
aS'1882'
p1388
aS'1735'
p1389
aS'992'
p1390
aS'1291'
p1391
aS'1796'
p1392
aS'1186'
p1393
aS'1180'
p1394
aS'1168'
p1395
aS'1711'
p1396
aS'1361'
p1397
aS'2051'
p1398
aS'2059'
p1399
aS'1964'
p1400
aS'1965'
p1401
aS'1972'
p1402
aS'1970'
p1403
aS'1948'
p1404
aS'1940'
p1405
aS'1947'
p1406
aS'1944'
p1407
aS'1834'
p1408
aS'1956'
p1409
aS'1951'
p1410
aS'1950'
p1411
aS'1952'
p1412
aS'1959'
p1413
aS'2095'
p1414
aS'2094'
p1415
aS'1853'
p1416
aS'1933'
p1417
aS'1931'
p1418
aS'1930'
p1419
aS'1937'
p1420
aS'1934'
p1421
aS'1939'
p1422
aS'1938'
p1423
aS'1904'
p1424
aS'1902'
p1425
aS'1871'
p1426
aS'1878'
p1427
aS'2110'
p1428
aS'1913'
p1429
aS'1864'
p1430
aS'1867'
p1431
aS'1898'
p1432
aS'1899'
p1433
aS'1895'
p1434
aS'1897'
p1435
aS'1891'
p1436
aS'1893'
p1437
aS'2000'
p1438
aS'2009'
p1439
aS'1888'
p1440
aS'1887'
p1441
aS'1885'
p1442
aS'1884'
p1443
aS'1881'
p1444
aS'2069'
p1445
aS'2071'
p1446
aa(lp1447
S'1193'
p1448
aS'1173'
p1449
aS'624'
p1450
aS'548'
p1451
aS'1091'
p1452
aS'1810'
p1453
aS'1818'
p1454
aS'1778'
p1455
aS'1399'
p1456
aS'1251'
p1457
aS'1703'
p1458
aS'1239'
p1459
aS'838'
p1460
aS'785'
p1461
aS'1218'
p1462
aS'1106'
p1463
aS'847'
p1464
aS'1033'
p1465
aS'1599'
p1466
aS'1027'
p1467
aS'1057'
p1468
aS'615'
p1469
aS'869'
p1470
aS'886'
p1471
aS'1047'
p1472
aS'1045'
p1473
aS'1686'
p1474
aS'666'
p1475
aS'876'
p1476
aS'872'
p1477
aS'899'
p1478
aS'1079'
p1479
aS'1072'
p1480
aS'1257'
p1481
aS'1791'
p1482
aS'1066'
p1483
aS'1026'
p1484
aS'1882'
p1485
aS'1260'
p1486
aS'1506'
p1487
aS'997'
p1488
aS'1835'
p1489
aS'1512'
p1490
aS'988'
p1491
aS'982'
p1492
aS'983'
p1493
aS'981'
p1494
aS'986'
p1495
aS'1164'
p1496
aS'1165'
p1497
aS'2689'
p1498
aS'2684'
p1499
aS'2685'
p1500
aS'2687'
p1501
aS'2692'
p1502
aS'2738'
p1503
aS'2729'
p1504
aS'1949'
p1505
aS'1940'
p1506
aS'1941'
p1507
aS'2532'
p1508
aS'2537'
p1509
aS'2534'
p1510
aS'2710'
p1511
aS'2715'
p1512
aS'1835'
p1513
aS'1951'
p1514
aS'2708'
p1515
aS'2707'
p1516
aS'2706'
p1517
aS'2703'
p1518
aS'2702'
p1519
aS'2552'
p1520
aS'2553'
p1521
aS'2559'
p1522
aS'2774'
p1523
aS'1932'
p1524
aS'1935'
p1525
aS'2546'
p1526
aS'2760'
p1527
aS'2765'
p1528
aS'2615'
p1529
aS'1902'
p1530
aS'2626'
p1531
aS'2758'
p1532
aS'2756'
p1533
aS'2564'
p1534
aS'2638'
p1535
aS'2743'
p1536
aS'2747'
p1537
aS'1894'
p1538
aS'2647'
p1539
aS'2659'
p1540
aS'2655'
p1541
aS'2807'
p1542
aS'2677'
p1543
aa(lp1544
S'1149'
p1545
aS'1399'
p1546
aS'791'
p1547
aS'1045'
p1548
aS'1531'
p1549
aS'1793'
p1550
aS'983'
p1551
aS'981'
p1552
aa(lp1553
S'1193'
p1554
aS'1751'
p1555
aS'1173'
p1556
aS'1282'
p1557
aS'1543'
p1558
aS'698'
p1559
aS'802'
p1560
aS'1150'
p1561
aS'1557'
p1562
aS'1805'
p1563
aS'1121'
p1564
aS'1012'
p1565
aS'1837'
p1566
aS'1823'
p1567
aS'922'
p1568
aS'782'
p1569
aS'1106'
p1570
aS'1104'
p1571
aS'1102'
p1572
aS'1856'
p1573
aS'1734'
p1574
aS'1031'
p1575
aS'1036'
p1576
aS'605'
p1577
aS'1054'
p1578
aS'615'
p1579
aS'1305'
p1580
aS'1306'
p1581
aS'1307'
p1582
aS'1302'
p1583
aS'868'
p1584
aS'1046'
p1585
aS'1269'
p1586
aS'632'
p1587
aS'872'
p1588
aS'1675'
p1589
aS'1097'
p1590
aS'1099'
p1591
aS'1522'
p1592
aS'1791'
p1593
aS'714'
p1594
aS'1026'
p1595
aS'1464'
p1596
aS'1650'
p1597
aS'1506'
p1598
aS'572'
p1599
aS'1420'
p1600
aS'1519'
p1601
aS'1518'
p1602
aS'582'
p1603
aS'983'
p1604
aS'980'
p1605
aS'1632'
p1606
aS'1638'
p1607
aS'1743'
p1608
aS'1169'
p1609
aS'1714'
p1610
aS'1979'
p1611
aS'2846'
p1612
aS'2855'
p1613
aS'2531'
p1614
aS'2717'
p1615
aS'2887'
p1616
aS'2708'
p1617
aS'2705'
p1618
aS'2706'
p1619
aS'2701'
p1620
aS'2700'
p1621
aS'2703'
p1622
aS'2702'
p1623
aS'2559'
p1624
aS'2769'
p1625
aS'2561'
p1626
aS'2567'
p1627
aS'2630'
p1628
aS'2000'
p1629
aS'2837'
p1630
aS'2835'
p1631
aS'2809'
p1632
aS'2804'
p1633
aS'2787'
p1634
aS'1986'
p1635
aS'1989'
p1636
aS'2816'
p1637
aa(lp1638
S'1759'
p1639
aS'1758'
p1640
aS'1754'
p1641
aS'1752'
p1642
aS'1750'
p1643
aS'172'
p1644
aS'1768'
p1645
aS'1766'
p1646
aS'1767'
p1647
aS'541'
p1648
aS'1801'
p1649
aS'1494'
p1650
aS'1702'
p1651
aS'1834'
p1652
aS'1822'
p1653
aS'1850'
p1654
aS'1730'
p1655
aS'1732'
p1656
aS'1734'
p1657
aS'1736'
p1658
aS'1112'
p1659
aS'486'
p1660
aS'1456'
p1661
aS'1841'
p1662
aS'1845'
p1663
aS'1305'
p1664
aS'1680'
p1665
aS'1682'
p1666
aS'1520'
p1667
aS'764'
p1668
aS'1672'
p1669
aS'1521'
p1670
aS'1667'
p1671
aS'1502'
p1672
aS'1507'
p1673
aS'1749'
p1674
aS'1512'
p1675
aS'1634'
p1676
aS'1748'
p1677
aS'1746'
p1678
aS'1740'
p1679
aS'1741'
p1680
aS'1743'
p1681
aS'1712'
p1682
aS'1815'
p1683
aa(lp1684
S'1780'
p1685
aS'550'
p1686
aS'1759'
p1687
aS'1755'
p1688
aS'1753'
p1689
aS'1750'
p1690
aS'1170'
p1691
aS'1178'
p1692
aS'624'
p1693
aS'1768'
p1694
aS'1766'
p1695
aS'1543'
p1696
aS'1380'
p1697
aS'1819'
p1698
aS'801'
p1699
aS'1151'
p1700
aS'1150'
p1701
aS'1152'
p1702
aS'1251'
p1703
aS'1703'
p1704
aS'1012'
p1705
aS'1234'
p1706
aS'1001'
p1707
aS'1729'
p1708
aS'1101'
p1709
aS'1850'
p1710
aS'1856'
p1711
aS'1739'
p1712
aS'1730'
p1713
aS'1734'
p1714
aS'1737'
p1715
aS'1736'
p1716
aS'1591'
p1717
aS'1848'
p1718
aS'1696'
p1719
aS'1271'
p1720
aS'1877'
p1721
aS'1047'
p1722
aS'1680'
p1723
aS'1072'
p1724
aS'1099'
p1725
aS'1324'
p1726
aS'649'
p1727
aS'1883'
p1728
aS'1882'
p1729
aS'1749'
p1730
aS'1640'
p1731
aS'572'
p1732
aS'1518'
p1733
aS'1796'
p1734
aS'1182'
p1735
aS'1748'
p1736
aS'1744'
p1737
aS'1747'
p1738
aS'1740'
p1739
aS'1743'
p1740
aS'1712'
p1741
aS'2049'
p1742
aS'1999'
p1743
aS'2056'
p1744
aS'1966'
p1745
aS'1960'
p1746
aS'1963'
p1747
aS'2877'
p1748
aS'1816'
p1749
aS'1972'
p1750
aS'1948'
p1751
aS'1949'
p1752
aS'1940'
p1753
aS'1941'
p1754
aS'1946'
p1755
aS'1944'
p1756
aS'1951'
p1757
aS'2096'
p1758
aS'2709'
p1759
aS'1931'
p1760
aS'1930'
p1761
aS'1935'
p1762
aS'1938'
p1763
aS'2768'
p1764
aS'1846'
p1765
aS'1906'
p1766
aS'1902'
p1767
aS'1875'
p1768
aS'1873'
p1769
aS'1910'
p1770
aS'1865'
p1771
aS'1866'
p1772
aS'1869'
p1773
aS'2747'
p1774
aS'1898'
p1775
aS'1899'
p1776
aS'1894'
p1777
aS'1896'
p1778
aS'1897'
p1779
aS'1891'
p1780
aS'1893'
p1781
aS'1885'
p1782
aS'1884'
p1783
aS'1882'
p1784
aS'2015'
p1785
aS'2013'
p1786
aS'2785'
p1787
aS'2784'
p1788
aS'2676'
p1789
aS'2679'
p1790
aS'1986'
p1791
aS'1987'
p1792
aS'1980'
p1793
aa(lp1794
S'1780'
p1795
aS'1752'
p1796
aS'1750'
p1797
aS'1766'
p1798
aS'547'
p1799
aS'1801'
p1800
aS'1703'
p1801
aS'1123'
p1802
aS'1012'
p1803
aS'1038'
p1804
aS'1218'
p1805
aS'1736'
p1806
aS'1841'
p1807
aS'1057'
p1808
aS'615'
p1809
aS'1302'
p1810
aS'1877'
p1811
aS'774'
p1812
aS'1687'
p1813
aS'1266'
p1814
aS'1246'
p1815
aS'764'
p1816
aS'1063'
p1817
aS'1640'
p1818
aS'988'
p1819
aS'1748'
p1820
aS'1746'
p1821
aS'1747'
p1822
aS'1740'
p1823
aS'1942'
p1824
aS'1944'
p1825
aS'2606'
p1826
aS'2608'
p1827
aS'1934'
p1828
aS'2613'
p1829
aS'2624'
p1830
aS'2629'
p1831
aS'2563'
p1832
aS'2068'
p1833
aS'2073'
p1834
aa(lp1835
S'1780'
p1836
aS'1622'
p1837
aS'1768'
p1838
aS'692'
p1839
aS'1380'
p1840
aS'1801'
p1841
aS'1237'
p1842
aS'436'
p1843
aS'797'
p1844
aS'921'
p1845
aS'834'
p1846
aS'780'
p1847
aS'1723'
p1848
aS'639'
p1849
aS'783'
p1850
aS'1458'
p1851
aS'840'
p1852
aS'1024'
p1853
aS'1031'
p1854
aS'1036'
p1855
aS'1214'
p1856
aS'1448'
p1857
aS'487'
p1858
aS'1455'
p1859
aS'905'
p1860
aS'1307'
p1861
aS'1301'
p1862
aS'1302'
p1863
aS'1309'
p1864
aS'869'
p1865
aS'886'
p1866
aS'1685'
p1867
aS'1261'
p1868
aS'1266'
p1869
aS'1867'
p1870
aS'1079'
p1871
aS'1320'
p1872
aS'959'
p1873
aS'441'
p1874
aS'943'
p1875
aS'585'
p1876
aS'1340'
p1877
aS'1502'
p1878
aS'322'
p1879
aS'326'
p1880
aS'1645'
p1881
aS'1429'
p1882
aS'1446'
p1883
aS'568'
p1884
aS'1711'
p1885
aS'1361'
p1886
aS'2040'
p1887
aS'2049'
p1888
aS'1991'
p1889
aS'1990'
p1890
aS'1993'
p1891
aS'1992'
p1892
aS'1995'
p1893
aS'1994'
p1894
aS'1997'
p1895
aS'1996'
p1896
aS'1999'
p1897
aS'1998'
p1898
aS'2037'
p1899
aS'2033'
p1900
aS'2031'
p1901
aS'2030'
p1902
aS'2050'
p1903
aS'2056'
p1904
aS'2059'
p1905
aS'2058'
p1906
aS'1968'
p1907
aS'1969'
p1908
aS'1964'
p1909
aS'1965'
p1910
aS'1966'
p1911
aS'1967'
p1912
aS'1960'
p1913
aS'1961'
p1914
aS'1962'
p1915
aS'1963'
p1916
aS'1812'
p1917
aS'1978'
p1918
aS'1977'
p1919
aS'1976'
p1920
aS'1975'
p1921
aS'1973'
p1922
aS'1972'
p1923
aS'1971'
p1924
aS'1970'
p1925
aS'2848'
p1926
aS'2849'
p1927
aS'2846'
p1928
aS'1948'
p1929
aS'1949'
p1930
aS'1942'
p1931
aS'1943'
p1932
aS'1940'
p1933
aS'1941'
p1934
aS'1946'
p1935
aS'1947'
p1936
aS'1944'
p1937
aS'1945'
p1938
aS'1832'
p1939
aS'1833'
p1940
aS'1831'
p1941
aS'1836'
p1942
aS'1837'
p1943
aS'1835'
p1944
aS'1838'
p1945
aS'1839'
p1946
aS'1955'
p1947
aS'1957'
p1948
aS'1956'
p1949
aS'1951'
p1950
aS'1950'
p1951
aS'1953'
p1952
aS'1952'
p1953
aS'1959'
p1954
aS'1958'
p1955
aS'2067'
p1956
aS'2096'
p1957
aS'2709'
p1958
aS'2701'
p1959
aS'1922'
p1960
aS'1923'
p1961
aS'1925'
p1962
aS'1926'
p1963
aS'1928'
p1964
aS'1929'
p1965
aS'2891'
p1966
aS'1859'
p1967
aS'1850'
p1968
aS'1851'
p1969
aS'1852'
p1970
aS'1854'
p1971
aS'1855'
p1972
aS'1856'
p1973
aS'1857'
p1974
aS'1933'
p1975
aS'1932'
p1976
aS'1931'
p1977
aS'1930'
p1978
aS'1937'
p1979
aS'1936'
p1980
aS'1935'
p1981
aS'1934'
p1982
aS'1939'
p1983
aS'1938'
p1984
aS'2764'
p1985
aS'1849'
p1986
aS'1848'
p1987
aS'1840'
p1988
aS'1845'
p1989
aS'1908'
p1990
aS'1909'
p1991
aS'1906'
p1992
aS'1907'
p1993
aS'1904'
p1994
aS'1905'
p1995
aS'1902'
p1996
aS'1903'
p1997
aS'1900'
p1998
aS'1901'
p1999
aS'1874'
p2000
aS'1875'
p2001
aS'1872'
p2002
aS'1870'
p2003
aS'1871'
p2004
aS'1878'
p2005
aS'1911'
p2006
aS'1910'
p2007
aS'1913'
p2008
aS'1912'
p2009
aS'1914'
p2010
aS'2024'
p2011
aS'2020'
p2012
aS'2023'
p2013
aS'2758'
p2014
aS'3027'
p2015
aS'2756'
p2016
aS'2021'
p2017
aS'1863'
p2018
aS'1862'
p2019
aS'1865'
p2020
aS'1864'
p2021
aS'1867'
p2022
aS'1866'
p2023
aS'1869'
p2024
aS'1868'
p2025
aS'2102'
p2026
aS'2101'
p2027
aS'2106'
p2028
aS'2034'
p2029
aS'2032'
p2030
aS'2039'
p2031
aS'1898'
p2032
aS'1899'
p2033
aS'1894'
p2034
aS'1895'
p2035
aS'1896'
p2036
aS'1897'
p2037
aS'1890'
p2038
aS'1891'
p2039
aS'1892'
p2040
aS'1893'
p2041
aS'2002'
p2042
aS'2003'
p2043
aS'2000'
p2044
aS'2006'
p2045
aS'2007'
p2046
aS'2004'
p2047
aS'2005'
p2048
aS'2008'
p2049
aS'2009'
p2050
aS'1889'
p2051
aS'1888'
p2052
aS'1887'
p2053
aS'1886'
p2054
aS'1885'
p2055
aS'1884'
p2056
aS'1883'
p2057
aS'1881'
p2058
aS'2019'
p2059
aS'2018'
p2060
aS'2015'
p2061
aS'2014'
p2062
aS'2016'
p2063
aS'2011'
p2064
aS'2010'
p2065
aS'2013'
p2066
aS'2836'
p2067
aS'2068'
p2068
aS'2069'
p2069
aS'2061'
p2070
aS'2062'
p2071
aS'2065'
p2072
aS'2807'
p2073
aS'2079'
p2074
aS'2071'
p2075
aS'2070'
p2076
aS'2074'
p2077
aS'1986'
p2078
aS'1987'
p2079
aS'1985'
p2080
aS'1980'
p2081
aS'1989'
p2082
aa(lp2083
S'1780'
p2084
aS'382'
p2085
aS'389'
p2086
aS'1819'
p2087
aS'1801'
p2088
aS'1259'
p2089
aS'1834'
p2090
aS'1137'
p2091
aS'1224'
p2092
aS'837'
p2093
aS'1106'
p2094
aS'1103'
p2095
aS'1393'
p2096
aS'1352'
p2097
aS'1842'
p2098
aS'1845'
p2099
aS'1872'
p2100
aS'1686'
p2101
aS'1520'
p2102
aS'1414'
p2103
aS'1791'
p2104
aS'1437'
p2105
aS'997'
p2106
aS'1749'
p2107
aS'1640'
p2108
aS'1356'
p2109
aS'1512'
p2110
aS'980'
p2111
aS'1712'
p2112
aS'1364'
p2113
aS'3028'
p2114
aS'2551'
p2115
aS'2837'
p2116
aa(lp2117
S'1193'
p2118
aS'1752'
p2119
aS'1172'
p2120
aS'1219'
p2121
aS'244'
p2122
aS'1766'
p2123
aS'1145'
p2124
aS'692'
p2125
aS'698'
p2126
aS'1787'
p2127
aS'1090'
p2128
aS'1817'
p2129
aS'1604'
p2130
aS'808'
p2131
aS'801'
p2132
aS'1527'
p2133
aS'813'
p2134
aS'814'
p2135
aS'1125'
p2136
aS'1126'
p2137
aS'1012'
p2138
aS'1234'
p2139
aS'1830'
p2140
aS'825'
p2141
aS'790'
p2142
aS'1139'
p2143
aS'1137'
p2144
aS'1009'
p2145
aS'200'
p2146
aS'921'
p2147
aS'836'
p2148
aS'784'
p2149
aS'785'
p2150
aS'786'
p2151
aS'780'
p2152
aS'1038'
p2153
aS'637'
p2154
aS'782'
p2155
aS'1106'
p2156
aS'1458'
p2157
aS'914'
p2158
aS'844'
p2159
aS'662'
p2160
aS'1110'
p2161
aS'856'
p2162
aS'749'
p2163
aS'1050'
p2164
aS'1051'
p2165
aS'1055'
p2166
aS'1058'
p2167
aS'716'
p2168
aS'715'
p2169
aS'617'
p2170
aS'615'
p2171
aS'1309'
p2172
aS'1876'
p2173
aS'595'
p2174
aS'886'
p2175
aS'775'
p2176
aS'774'
p2177
aS'1046'
p2178
aS'1045'
p2179
aS'661'
p2180
aS'872'
p2181
aS'897'
p2182
aS'1078'
p2183
aS'1092'
p2184
aS'673'
p2185
aS'1521'
p2186
aS'959'
p2187
aS'958'
p2188
aS'1063'
p2189
aS'1086'
p2190
aS'1083'
p2191
aS'649'
p2192
aS'1883'
p2193
aS'1882'
p2194
aS'1655'
p2195
aS'1340'
p2196
aS'1506'
p2197
aS'991'
p2198
aS'1517'
p2199
aS'1512'
p2200
aS'986'
p2201
aS'984'
p2202
aS'1796'
p2203
aS'721'
p2204
aS'1747'
p2205
aS'1740'
p2206
aS'1164'
p2207
aS'1368'
p2208
aS'2688'
p2209
aS'1992'
p2210
aS'1998'
p2211
aS'2863'
p2212
aS'2868'
p2213
aS'2869'
p2214
aS'2742'
p2215
aS'2744'
p2216
aS'2873'
p2217
aS'2872'
p2218
aS'2870'
p2219
aS'2877'
p2220
aS'2876'
p2221
aS'2875'
p2222
aS'2874'
p2223
aS'2879'
p2224
aS'2878'
p2225
aS'2735'
p2226
aS'2736'
p2227
aS'2737'
p2228
aS'2730'
p2229
aS'2732'
p2230
aS'2733'
p2231
aS'2738'
p2232
aS'2797'
p2233
aS'2848'
p2234
aS'2849'
p2235
aS'2846'
p2236
aS'2847'
p2237
aS'2844'
p2238
aS'2845'
p2239
aS'2842'
p2240
aS'2843'
p2241
aS'2840'
p2242
aS'2999'
p2243
aS'2996'
p2244
aS'2997'
p2245
aS'2725'
p2246
aS'2721'
p2247
aS'2728'
p2248
aS'1942'
p2249
aS'2850'
p2250
aS'2852'
p2251
aS'2855'
p2252
aS'2854'
p2253
aS'2857'
p2254
aS'2988'
p2255
aS'2983'
p2256
aS'3024'
p2257
aS'2987'
p2258
aS'2985'
p2259
aS'2944'
p2260
aS'2538'
p2261
aS'2536'
p2262
aS'2710'
p2263
aS'2792'
p2264
aS'2793'
p2265
aS'2794'
p2266
aS'2882'
p2267
aS'2880'
p2268
aS'2881'
p2269
aS'2884'
p2270
aS'2885'
p2271
aS'2888'
p2272
aS'2889'
p2273
aS'2708'
p2274
aS'2704'
p2275
aS'2707'
p2276
aS'2706'
p2277
aS'2701'
p2278
aS'3005'
p2279
aS'3004'
p2280
aS'3007'
p2281
aS'3006'
p2282
aS'3000'
p2283
aS'3003'
p2284
aS'2898'
p2285
aS'2895'
p2286
aS'2894'
p2287
aS'2897'
p2288
aS'2896'
p2289
aS'2891'
p2290
aS'2890'
p2291
aS'2892'
p2292
aS'2551'
p2293
aS'2559'
p2294
aS'2779'
p2295
aS'2772'
p2296
aS'2773'
p2297
aS'2776'
p2298
aS'1933'
p2299
aS'2958'
p2300
aS'2956'
p2301
aS'2957'
p2302
aS'2950'
p2303
aS'2951'
p2304
aS'2541'
p2305
aS'2761'
p2306
aS'2619'
p2307
aS'2948'
p2308
aS'2947'
p2309
aS'2942'
p2310
aS'2941'
p2311
aS'2940'
p2312
aS'2622'
p2313
aS'2621'
p2314
aS'2629'
p2315
aS'2828'
p2316
aS'2829'
p2317
aS'2824'
p2318
aS'2825'
p2319
aS'2973'
p2320
aS'2982'
p2321
aS'2757'
p2322
aS'2752'
p2323
aS'2759'
p2324
aS'2588'
p2325
aS'2637'
p2326
aS'2740'
p2327
aS'2749'
p2328
aS'2748'
p2329
aS'2965'
p2330
aS'2961'
p2331
aS'2969'
p2332
aS'2640'
p2333
aS'2910'
p2334
aS'2912'
p2335
aS'2915'
p2336
aS'2919'
p2337
aS'2826'
p2338
aS'2827'
p2339
aS'2820'
p2340
aS'2821'
p2341
aS'2822'
p2342
aS'2823'
p2343
aS'2902'
p2344
aS'2901'
p2345
aS'2900'
p2346
aS'2906'
p2347
aS'2905'
p2348
aS'2909'
p2349
aS'2839'
p2350
aS'2838'
p2351
aS'2837'
p2352
aS'2836'
p2353
aS'2835'
p2354
aS'2959'
p2355
aS'2796'
p2356
aS'2795'
p2357
aS'2939'
p2358
aS'2936'
p2359
aS'2937'
p2360
aS'2932'
p2361
aS'2933'
p2362
aS'2931'
p2363
aS'2808'
p2364
aS'2809'
p2365
aS'2802'
p2366
aS'2803'
p2367
aS'2806'
p2368
aS'2804'
p2369
aS'2805'
p2370
aS'2785'
p2371
aS'2781'
p2372
aS'2789'
p2373
aS'2929'
p2374
aS'2928'
p2375
aS'2921'
p2376
aS'2920'
p2377
aS'2923'
p2378
aS'2922'
p2379
aS'2924'
p2380
aS'2927'
p2381
aS'2926'
p2382
aS'2814'
p2383
aS'2817'
p2384
aS'2816'
p2385
aS'2810'
p2386
aS'2813'
p2387
aS'2812'
p2388
aS'2819'
p2389
aS'2818'
p2390
aa(lp2391
S'1195'
p2392
aS'1172'
p2393
aS'1170'
p2394
aS'1281'
p2395
aS'1288'
p2396
aS'624'
p2397
aS'1378'
p2398
aS'1144'
p2399
aS'1148'
p2400
aS'1149'
p2401
aS'1386'
p2402
aS'1810'
p2403
aS'1158'
p2404
aS'1154'
p2405
aS'1156'
p2406
aS'814'
p2407
aS'815'
p2408
aS'816'
p2409
aS'1120'
p2410
aS'1126'
p2411
aS'1234'
p2412
aS'1237'
p2413
aS'826'
p2414
aS'796'
p2415
aS'1136'
p2416
aS'1229'
p2417
aS'1228'
p2418
aS'1572'
p2419
aS'1829'
p2420
aS'929'
p2421
aS'836'
p2422
aS'1103'
p2423
aS'1101'
p2424
aS'840'
p2425
aS'1030'
p2426
aS'1025'
p2427
aS'1036'
p2428
aS'1028'
p2429
aS'607'
p2430
aS'634'
p2431
aS'1841'
p2432
aS'853'
p2433
aS'1055'
p2434
aS'716'
p2435
aS'715'
p2436
aS'710'
p2437
aS'1307'
p2438
aS'494'
p2439
aS'869'
p2440
aS'868'
p2441
aS'864'
p2442
aS'888'
p2443
aS'774'
p2444
aS'1047'
p2445
aS'664'
p2446
aS'1266'
p2447
aS'443'
p2448
aS'961'
p2449
aS'1243'
p2450
aS'1097'
p2451
aS'678'
p2452
aS'1329'
p2453
aS'959'
p2454
aS'1442'
p2455
aS'1265'
p2456
aS'1662'
p2457
aS'648'
p2458
aS'943'
p2459
aS'708'
p2460
aS'1340'
p2461
aS'999'
p2462
aS'577'
p2463
aS'1423'
p2464
aS'988'
p2465
aS'983'
p2466
aS'1182'
p2467
aS'1169'
p2468
aS'1290'
p2469
aS'1201'
p2470
aS'2041'
p2471
aS'1991'
p2472
aS'1993'
p2473
aS'1992'
p2474
aS'1995'
p2475
aS'1994'
p2476
aS'1997'
p2477
aS'1996'
p2478
aS'1999'
p2479
aS'1998'
p2480
aS'2035'
p2481
aS'2300'
p2482
aS'1969'
p2483
aS'1965'
p2484
aS'1966'
p2485
aS'1961'
p2486
aS'1962'
p2487
aS'1963'
p2488
aS'2872'
p2489
aS'2874'
p2490
aS'2738'
p2491
aS'1814'
p2492
aS'1815'
p2493
aS'1816'
p2494
aS'1817'
p2495
aS'1812'
p2496
aS'1818'
p2497
aS'1819'
p2498
aS'1979'
p2499
aS'1978'
p2500
aS'1977'
p2501
aS'1974'
p2502
aS'1972'
p2503
aS'1971'
p2504
aS'2726'
p2505
aS'2724'
p2506
aS'1948'
p2507
aS'1949'
p2508
aS'1942'
p2509
aS'1943'
p2510
aS'1940'
p2511
aS'1941'
p2512
aS'1946'
p2513
aS'1947'
p2514
aS'1944'
p2515
aS'1945'
p2516
aS'3029'
p2517
aS'3024'
p2518
aS'2082'
p2519
aS'2080'
p2520
aS'2081'
p2521
aS'2085'
p2522
aS'1832'
p2523
aS'1833'
p2524
aS'1836'
p2525
aS'1837'
p2526
aS'1834'
p2527
aS'1835'
p2528
aS'1838'
p2529
aS'1839'
p2530
aS'1955'
p2531
aS'1954'
p2532
aS'1957'
p2533
aS'1951'
p2534
aS'1953'
p2535
aS'1952'
p2536
aS'1959'
p2537
aS'1958'
p2538
aS'2067'
p2539
aS'2096'
p2540
aS'2090'
p2541
aS'2092'
p2542
aS'2099'
p2543
aS'2702'
p2544
aS'1825'
p2545
aS'1824'
p2546
aS'1820'
p2547
aS'1823'
p2548
aS'1822'
p2549
aS'1926'
p2550
aS'1928'
p2551
aS'1929'
p2552
aS'2896'
p2553
aS'2892'
p2554
aS'1850'
p2555
aS'1851'
p2556
aS'1852'
p2557
aS'1854'
p2558
aS'1855'
p2559
aS'1856'
p2560
aS'1933'
p2561
aS'1932'
p2562
aS'1931'
p2563
aS'1930'
p2564
aS'1937'
p2565
aS'1936'
p2566
aS'1935'
p2567
aS'1934'
p2568
aS'1939'
p2569
aS'1938'
p2570
aS'1849'
p2571
aS'1848'
p2572
aS'1843'
p2573
aS'1842'
p2574
aS'1841'
p2575
aS'1840'
p2576
aS'1847'
p2577
aS'1846'
p2578
aS'1844'
p2579
aS'1908'
p2580
aS'1906'
p2581
aS'1907'
p2582
aS'1904'
p2583
aS'1902'
p2584
aS'1903'
p2585
aS'1900'
p2586
aS'2946'
p2587
aS'1876'
p2588
aS'1877'
p2589
aS'1874'
p2590
aS'1875'
p2591
aS'1872'
p2592
aS'1873'
p2593
aS'1870'
p2594
aS'1871'
p2595
aS'1878'
p2596
aS'2113'
p2597
aS'2114'
p2598
aS'1911'
p2599
aS'1910'
p2600
aS'1912'
p2601
aS'1914'
p2602
aS'2024'
p2603
aS'2025'
p2604
aS'2026'
p2605
aS'2027'
p2606
aS'2829'
p2607
aS'2752'
p2608
aS'2021'
p2609
aS'1861'
p2610
aS'1863'
p2611
aS'1862'
p2612
aS'1865'
p2613
aS'1864'
p2614
aS'1866'
p2615
aS'1869'
p2616
aS'1868'
p2617
aS'2101'
p2618
aS'2107'
p2619
aS'2106'
p2620
aS'2105'
p2621
aS'2634'
p2622
aS'2034'
p2623
aS'2032'
p2624
aS'2039'
p2625
aS'2038'
p2626
aS'2961'
p2627
aS'1898'
p2628
aS'1899'
p2629
aS'1894'
p2630
aS'1895'
p2631
aS'1896'
p2632
aS'1897'
p2633
aS'1890'
p2634
aS'1891'
p2635
aS'2000'
p2636
aS'2006'
p2637
aS'2007'
p2638
aS'2005'
p2639
aS'2008'
p2640
aS'2009'
p2641
aS'2910'
p2642
aS'2916'
p2643
aS'2919'
p2644
aS'2827'
p2645
aS'1889'
p2646
aS'1888'
p2647
aS'1887'
p2648
aS'1886'
p2649
aS'1885'
p2650
aS'1884'
p2651
aS'1883'
p2652
aS'1882'
p2653
aS'1881'
p2654
aS'1880'
p2655
aS'2019'
p2656
aS'2014'
p2657
aS'2017'
p2658
aS'2013'
p2659
aS'2012'
p2660
aS'2906'
p2661
aS'2068'
p2662
aS'2798'
p2663
aS'2799'
p2664
aS'2937'
p2665
aS'2931'
p2666
aS'2071'
p2667
aS'2920'
p2668
aS'2923'
p2669
aS'1986'
p2670
aS'1987'
p2671
aS'1985'
p2672
aS'1988'
p2673
aS'1989'
p2674
aa(lp2675
S'1177'
p2676
aS'1176'
p2677
aS'1173'
p2678
aS'1171'
p2679
aS'1170'
p2680
aS'1226'
p2681
aS'1145'
p2682
aS'1149'
p2683
aS'415'
p2684
aS'366'
p2685
aS'386'
p2686
aS'1253'
p2687
aS'1819'
p2688
aS'1155'
p2689
aS'1154'
p2690
aS'1157'
p2691
aS'1150'
p2692
aS'1152'
p2693
aS'1556'
p2694
aS'534'
p2695
aS'226'
p2696
aS'1120'
p2697
aS'1125'
p2698
aS'432'
p2699
aS'1133'
p2700
aS'1130'
p2701
aS'69'
p2702
aS'1102'
p2703
aS'1100'
p2704
aS'216'
p2705
aS'212'
p2706
aS'846'
p2707
aS'840'
p2708
aS'1022'
p2709
aS'1205'
p2710
aS'1119'
p2711
aS'483'
p2712
aS'196'
p2713
aS'906'
p2714
aS'853'
p2715
aS'1057'
p2716
aS'1058'
p2717
aS'970'
p2718
aS'869'
p2719
aS'70'
p2720
aS'1045'
p2721
aS'1261'
p2722
aS'1461'
p2723
aS'312'
p2724
aS'961'
p2725
aS'1073'
p2726
aS'1095'
p2727
aS'1096'
p2728
aS'678'
p2729
aS'1735'
p2730
aS'453'
p2731
aS'456'
p2732
aS'517'
p2733
aS'1796'
p2734
aS'1637'
p2735
aS'1638'
p2736
aS'1162'
p2737
aS'1168'
p2738
aS'1169'
p2739
aS'48'
p2740
aS'43'
p2741
aS'1201'
p2742
aS'479'
p2743
aS'2689'
p2744
aS'2300'
p2745
aS'2303'
p2746
aS'2694'
p2747
aS'2693'
p2748
aS'2870'
p2749
aS'2720'
p2750
aS'1948'
p2751
aS'1947'
p2752
aS'2536'
p2753
aS'2880'
p2754
aS'2709'
p2755
aS'2708'
p2756
aS'2706'
p2757
aS'2555'
p2758
aS'2772'
p2759
aS'2952'
p2760
aS'2548'
p2761
aS'1904'
p2762
aS'1903'
p2763
aS'2943'
p2764
aS'1877'
p2765
aS'2753'
p2766
aS'2299'
p2767
aS'2561'
p2768
aS'1894'
p2769
aS'1893'
p2770
aS'2000'
p2771
aS'1884'
p2772
aS'2838'
p2773
aS'2809'
p2774
aS'2803'
p2775
aS'2815'
p2776
aa(lp2777
S'1780'
p2778
aS'1759'
p2779
aS'1758'
p2780
aS'1756'
p2781
aS'1754'
p2782
aS'1752'
p2783
aS'1750'
p2784
aS'1172'
p2785
aS'400'
p2786
aS'1766'
p2787
aS'1765'
p2788
aS'1543'
p2789
aS'1154'
p2790
aS'532'
p2791
aS'1525'
p2792
aS'1128'
p2793
aS'521'
p2794
aS'826'
p2795
aS'1822'
p2796
aS'831'
p2797
aS'637'
p2798
aS'1850'
p2799
aS'459'
p2800
aS'1739'
p2801
aS'1730'
p2802
aS'1736'
p2803
aS'1023'
p2804
aS'1205'
p2805
aS'1214'
p2806
aS'1112'
p2807
aS'484'
p2808
aS'1848'
p2809
aS'1846'
p2810
ag921
aS'1305'
p2811
aS'1047'
p2812
aS'1048'
p2813
aS'1313'
p2814
aS'1520'
p2815
aS'1673'
p2816
aS'678'
p2817
aS'1415'
p2818
aS'1531'
p2819
aS'1522'
p2820
aS'1523'
p2821
aS'1066'
p2822
aS'1086'
p2823
aS'1339'
p2824
aS'446'
p2825
aS'1539'
p2826
aS'1538'
p2827
aS'1507'
p2828
aS'328'
p2829
aS'998'
p2830
aS'572'
p2831
aS'731'
p2832
aS'1519'
p2833
aS'1188'
p2834
aS'1182'
p2835
aS'1183'
p2836
aS'1748'
p2837
aS'1744'
p2838
aS'1747'
p2839
aS'1740'
p2840
aS'1741'
p2841
aS'1164'
p2842
aS'474'
p2843
aS'2878'
p2844
aS'2998'
p2845
aS'2999'
p2846
aS'3030'
p2847
aS'3029'
p2848
aS'3028'
p2849
aS'3025'
p2850
aS'3024'
p2851
aS'2929'
p2852
aa(lp2853
a(lp2854
a(lp2855
a(lp2856
a(lp2857
a(lp2858
a(lp2859
S'1399'
p2860
aS'1237'
p2861
aS'939'
p2862
aS'1277'
p2863
aS'1456'
p2864
aS'1316'
p2865
aS'1322'
p2866
aS'1323'
p2867
aS'1531'
p2868
aS'1522'
p2869
aS'1523'
p2870
aS'1735'
p2871
aS'1420'
p2872
aS'1994'
p2873
aS'1996'
p2874
aS'1968'
p2875
aS'1964'
p2876
aS'1960'
p2877
aS'1977'
p2878
aS'1970'
p2879
aS'1942'
p2880
aS'1941'
p2881
aS'1946'
p2882
aS'1947'
p2883
aS'1945'
p2884
aS'1954'
p2885
aS'1956'
p2886
aS'1959'
p2887
aS'1929'
p2888
aS'1933'
p2889
aS'1932'
p2890
aS'1931'
p2891
aS'1930'
p2892
aS'1936'
p2893
aS'1939'
p2894
aS'1938'
p2895
aS'1876'
p2896
aS'1910'
p2897
aS'2024'
p2898
aS'1895'
p2899
aS'2071'
p2900
aS'1989'
p2901
aa(lp2902
S'227'
p2903
aS'1494'
p2904
aS'790'
p2905
aS'1731'
p2906
aS'1455'
p2907
aS'1523'
p2908
aS'1539'
p2909
aS'1502'
p2910
aS'1503'
p2911
aa(lp2912
S'1385'
p2913
aS'1810'
p2914
aS'1808'
p2915
aS'1701'
p2916
aS'1017'
p2917
aS'939'
p2918
aS'1106'
p2919
aS'919'
p2920
aS'910'
p2921
aS'1734'
p2922
aS'1032'
p2923
aS'1027'
p2924
aS'904'
p2925
aS'972'
p2926
aS'977'
p2927
aS'976'
p2928
aS'978'
p2929
aS'884'
p2930
aS'965'
p2931
aS'966'
p2932
aS'899'
p2933
aS'1324'
p2934
aS'951'
p2935
aS'950'
p2936
aS'955'
p2937
aS'956'
p2938
aS'947'
p2939
aS'995'
p2940
aS'993'
p2941
aS'1512'
p2942
aS'1748'
p2943
aS'1740'
p2944
aa(lp2945
S'1287'
p2946
aS'1379'
p2947
aS'391'
p2948
aS'1831'
p2949
aS'1487'
p2950
aS'1486'
p2951
aS'1488'
p2952
aS'1031'
p2953
aS'1056'
p2954
aS'869'
p2955
aS'860'
p2956
aS'313'
p2957
aS'314'
p2958
aS'872'
p2959
aS'1062'
p2960
aS'1026'
p2961
aS'322'
p2962
aS'324'
p2963
aS'998'
p2964
aS'355'
p2965
aS'358'
p2966
aa(lp2967
S'1385'
p2968
aS'1113'
p2969
aS'872'
p2970
aS'1674'
p2971
aa(lp2972
S'1780'
p2973
aS'1750'
p2974
aS'537'
p2975
aS'1251'
p2976
aS'1703'
p2977
aS'1488'
p2978
aS'1003'
p2979
aS'785'
p2980
aS'1370'
p2981
aS'788'
p2982
aS'754'
p2983
aS'1207'
p2984
aS'1875'
p2985
aS'313'
p2986
aS'582'
p2987
aS'353'
p2988
aS'1740'
p2989
aa(lp2990
S'179'
p2991
aS'1768'
p2992
aS'1766'
p2993
aS'1144'
p2994
aS'1148'
p2995
aS'1545'
p2996
aS'1540'
p2997
aS'544'
p2998
aS'548'
p2999
aS'383'
p3000
aS'1812'
p3001
aS'1819'
p3002
aS'539'
p3003
aS'427'
p3004
aS'1703'
p3005
aS'824'
p3006
aS'1487'
p3007
aS'796'
p3008
aS'1225'
p3009
aS'69'
p3010
aS'1216'
p3011
aS'401'
p3012
aS'459'
p3013
aS'753'
p3014
aS'755'
p3015
aS'754'
p3016
aS'461'
p3017
aS'761'
p3018
aS'486'
p3019
aS'483'
p3020
aS'744'
p3021
aS'614'
p3022
aS'1309'
p3023
aS'776'
p3024
aS'772'
p3025
aS'1314'
p3026
aS'1311'
p3027
aS'1861'
p3028
aS'893'
p3029
aS'765'
p3030
aS'679'
p3031
aS'306'
p3032
aS'713'
p3033
aS'442'
p3034
aS'1349'
p3035
aS'651'
p3036
aS'733'
p3037
aS'462'
p3038
aS'568'
p3039
aS'565'
p3040
aS'726'
p3041
aS'1744'
p3042
aS'1745'
p3043
aS'478'
p3044
aa(lp3045
S'557'
p3046
aS'553'
p3047
aS'1223'
p3048
aS'656'
p3049
aS'1540'
p3050
aS'540'
p3051
aS'541'
p3052
aS'411'
p3053
aS'1381'
p3054
aS'808'
p3055
aS'802'
p3056
aS'801'
p3057
aS'537'
p3058
aS'55'
p3059
aS'535'
p3060
aS'539'
p3061
aS'1399'
p3062
aS'227'
p3063
aS'1121'
p3064
aS'522'
p3065
aS'827'
p3066
aS'820'
p3067
aS'791'
p3068
aS'519'
p3069
aS'518'
p3070
aS'838'
p3071
aS'784'
p3072
aS'60'
p3073
aS'1037'
p3074
aS'1101'
p3075
aS'751'
p3076
aS'1025'
p3077
aS'1036'
p3078
aS'1034'
p3079
aS'716'
p3080
aS'1046'
p3081
aS'897'
p3082
aS'1092'
p3083
aS'958'
p3084
aS'957'
p3085
aS'1265'
p3086
aS'441'
p3087
aS'648'
p3088
aS'1026'
p3089
aS'453'
p3090
aS'991'
p3091
aS'998'
p3092
aS'577'
p3093
aS'582'
p3094
aS'350'
p3095
aS'982'
p3096
aS'980'
p3097
aS'568'
p3098
aS'1181'
p3099
aS'1162'
p3100
aS'2682'
p3101
aS'2742'
p3102
aS'2744'
p3103
aS'2697'
p3104
aS'2876'
p3105
aS'2791'
p3106
aS'2735'
p3107
aS'2737'
p3108
aS'2732'
p3109
aS'2845'
p3110
aS'2729'
p3111
aS'2539'
p3112
aS'2713'
p3113
aS'2710'
p3114
aS'2711'
p3115
aS'2717'
p3116
aS'2715'
p3117
aS'2793'
p3118
aS'2708'
p3119
aS'2705'
p3120
aS'2701'
p3121
aS'2700'
p3122
aS'2550'
p3123
aS'2551'
p3124
aS'2773'
p3125
aS'2601'
p3126
aS'2543'
p3127
aS'2769'
p3128
aS'2768'
p3129
aS'2762'
p3130
aS'2766'
p3131
aS'2764'
p3132
aS'2579'
p3133
aS'2576'
p3134
aS'2825'
p3135
aS'2756'
p3136
aS'2755'
p3137
aS'2752'
p3138
aS'2750'
p3139
aS'2759'
p3140
aS'2568'
p3141
aS'2563'
p3142
aS'2562'
p3143
aS'2583'
p3144
aS'2589'
p3145
aS'2588'
p3146
aS'2741'
p3147
aS'2743'
p3148
aS'2747'
p3149
aS'2746'
p3150
aS'2749'
p3151
aS'2748'
p3152
aS'2823'
p3153
aS'2835'
p3154
aS'2831'
p3155
aS'2809'
p3156
aS'2807'
p3157
aS'2784'
p3158
aS'2788'
p3159
aS'2670'
p3160
aS'2677'
p3161
aS'2921'
p3162
aS'2920'
p3163
aS'2814'
p3164
aa(lp3165
S'348'
p3166
aS'299'
p3167
aS'297'
p3168
aS'290'
p3169
aS'104'
p3170
aS'557'
p3171
aS'458'
p3172
aS'407'
p3173
aS'409'
p3174
aS'408'
p3175
aS'378'
p3176
aS'393'
p3177
aS'399'
p3178
aS'248'
p3179
aS'172'
p3180
aS'542'
p3181
aS'548'
p3182
aS'413'
p3183
aS'534'
p3184
aS'424'
p3185
aS'226'
p3186
aS'817'
p3187
aS'423'
p3188
aS'525'
p3189
aS'1014'
p3190
aS'1017'
p3191
aS'239'
p3192
aS'1831'
p3193
aS'823'
p3194
aS'13'
p3195
aS'14'
p3196
aS'500'
p3197
aS'1216'
p3198
aS'636'
p3199
aS'788'
p3200
aS'218'
p3201
aS'917'
p3202
aS'759'
p3203
aS'1595'
p3204
aS'487'
p3205
aS'486'
p3206
aS'482'
p3207
aS'480'
p3208
aS'695'
p3209
aS'195'
p3210
aS'859'
p3211
aS'616'
p3212
aS'22'
p3213
aS'860'
p3214
aS'865'
p3215
aS'867'
p3216
aS'773'
p3217
aS'73'
p3218
aS'71'
p3219
ag47
aS'1312'
p3220
aS'319'
p3221
aS'312'
p3222
aS'645'
p3223
aS'893'
p3224
aS'894'
p3225
aS'769'
p3226
aS'766'
p3227
aS'300'
p3228
aS'303'
p3229
aS'305'
p3230
aS'306'
p3231
aS'1067'
p3232
aS'593'
p3233
aS'599'
p3234
aS'693'
p3235
aS'691'
p3236
aS'31'
p3237
aS'335'
p3238
aS'333'
p3239
aS'332'
p3240
aS'704'
p3241
aS'705'
p3242
aS'707'
p3243
aS'1349'
p3244
aS'659'
p3245
aS'323'
p3246
aS'123'
p3247
aS'124'
p3248
aS'571'
p3249
aS'733'
p3250
aS'468'
p3251
aS'289'
p3252
aS'260'
p3253
aS'117'
p3254
aS'563'
p3255
aS'567'
p3256
aS'48'
p3257
aS'475'
p3258
aS'477'
p3259
aS'478'
p3260
aa(lp3261
S'102'
p3262
aS'879'
p3263
aS'689'
p3264
aS'178'
p3265
aS'171'
p3266
aS'699'
p3267
aS'1383'
p3268
aS'153'
p3269
aS'152'
p3270
aS'525'
p3271
aS'526'
p3272
aS'926'
p3273
aS'1731'
p3274
aS'757'
p3275
aS'607'
p3276
aS'5'
p3277
aS'1849'
p3278
aS'710'
p3279
aS'490'
p3280
aS'883'
p3281
aS'776'
p3282
aS'770'
p3283
aS'1314'
p3284
aS'766'
p3285
aS'764'
p3286
aS'765'
p3287
aS'1665'
p3288
aS'441'
p3289
aS'136'
p3290
aS'135'
p3291
aS'659'
p3292
aS'126'
p3293
aS'737'
p3294
aS'985'
p3295
aS'113'
p3296
aS'726'
p3297
aa(lp3298
S'297'
p3299
aS'1004'
p3300
aS'553'
p3301
aS'510'
p3302
aS'684'
p3303
aS'683'
p3304
aS'375'
p3305
aS'397'
p3306
aS'544'
p3307
aS'252'
p3308
aS'1810'
p3309
aS'531'
p3310
aS'539'
p3311
aS'527'
p3312
aS'438'
p3313
aS'435'
p3314
aS'1488'
p3315
aS'791'
p3316
aS'1719'
p3317
aS'519'
p3318
aS'518'
p3319
aS'511'
p3320
aS'513'
p3321
aS'201'
p3322
aS'60'
p3323
aS'509'
p3324
aS'1101'
p3325
aS'217'
p3326
aS'1856'
p3327
aS'1734'
p3328
aS'750'
p3329
aS'1595'
p3330
aS'501'
p3331
aS'605'
p3332
aS'607'
p3333
aS'600'
p3334
aS'852'
p3335
aS'1053'
p3336
aS'716'
p3337
aS'610'
p3338
aS'494'
p3339
aS'490'
p3340
aS'1679'
p3341
aS'677'
p3342
aS'672'
p3343
aS'719'
p3344
aS'1063'
p3345
aS'597'
p3346
aS'643'
p3347
aS'648'
p3348
aS'1026'
p3349
aS'1882'
p3350
aS'708'
p3351
aS'707'
p3352
aS'700'
p3353
aS'992'
p3354
aS'736'
p3355
aS'261'
p3356
aS'988'
p3357
aS'983'
p3358
aS'980'
p3359
aS'981'
p3360
aS'568'
p3361
aS'560'
p3362
aS'561'
p3363
aS'2686'
p3364
aS'2682'
p3365
aS'2538'
p3366
aS'2539'
p3367
aS'2532'
p3368
aS'2533'
p3369
aS'2531'
p3370
aS'2529'
p3371
aS'2700'
p3372
aS'2702'
p3373
aS'2550'
p3374
aS'2551'
p3375
aS'2552'
p3376
aS'2556'
p3377
aS'2604'
p3378
aS'2606'
p3379
aS'2600'
p3380
aS'2603'
p3381
aS'2543'
p3382
aS'2542'
p3383
aS'2541'
p3384
aS'2540'
p3385
aS'2546'
p3386
aS'2545'
p3387
aS'2544'
p3388
aS'2548'
p3389
aS'2613'
p3390
aS'2612'
p3391
aS'2611'
p3392
aS'2574'
p3393
aS'2570'
p3394
aS'2571'
p3395
aS'2598'
p3396
aS'2623'
p3397
aS'2626'
p3398
aS'2627'
p3399
aS'2569'
p3400
aS'2560'
p3401
aS'2562'
p3402
aS'2564'
p3403
aS'2587'
p3404
aS'2583'
p3405
aS'2580'
p3406
aS'2636'
p3407
aS'2641'
p3408
aS'2642'
p3409
aS'2646'
p3410
aS'2647'
p3411
aS'2654'
p3412
aS'2671'
p3413
aS'2672'
p3414
aS'2676'
p3415
aa(lp3416
S'271'
p3417
aS'103'
p3418
aS'97'
p3419
aS'684'
p3420
aS'399'
p3421
aS'245'
p3422
aS'548'
p3423
aS'361'
p3424
aS'161'
p3425
aS'58'
p3426
aS'225'
p3427
aS'155'
p3428
aS'154'
p3429
aS'814'
p3430
aS'237'
p3431
aS'230'
p3432
aS'232'
p3433
aS'144'
p3434
aS'145'
p3435
aS'148'
p3436
aS'939'
p3437
aS'790'
p3438
aS'1225'
p3439
aS'3'
p3440
aS'215'
p3441
aS'754'
p3442
aS'758'
p3443
aS'1033'
p3444
aS'1030'
p3445
aS'850'
p3446
aS'744'
p3447
aS'1270'
p3448
aS'610'
p3449
aS'616'
p3450
aS'614'
p3451
aS'972'
p3452
aS'977'
p3453
aS'976'
p3454
aS'185'
p3455
aS'880'
p3456
aS'772'
p3457
aS'892'
p3458
aS'893'
p3459
aS'766'
p3460
aS'765'
p3461
aS'1322'
p3462
aS'473'
p3463
aS'1067'
p3464
aS'329'
p3465
aS'994'
p3466
aS'993'
p3467
aS'735'
p3468
aS'736'
p3469
aS'565'
p3470
aS'566'
p3471
aS'726'
p3472
aS'2682'
p3473
aS'2705'
p3474
aS'2544'
p3475
aS'2640'
p3476
aS'2643'
p3477
aS'2674'
p3478
aa(lp3479
S'294'
p3480
aS'106'
p3481
aS'1372'
p3482
aS'1374'
p3483
aS'395'
p3484
aS'399'
p3485
aS'172'
p3486
aS'1362'
p3487
aS'1150'
p3488
aS'426'
p3489
aS'1805'
p3490
aS'433'
p3491
aS'431'
p3492
aS'237'
p3493
aS'233'
p3494
aS'146'
p3495
aS'626'
p3496
aS'1371'
p3497
aS'217'
p3498
aS'212'
p3499
aS'847'
p3500
aS'856'
p3501
aS'443'
p3502
aS'1330'
p3503
aS'673'
p3504
aS'306'
p3505
aS'1665'
p3506
aS'1405'
p3507
aS'336'
p3508
aS'333'
p3509
aS'134'
p3510
aS'81'
p3511
aS'1348'
p3512
aS'322'
p3513
aS'997'
p3514
aS'127'
p3515
aS'1359'
p3516
aS'359'
p3517
aS'1940'
p3518
aS'1936'
p3519
aS'1934'
p3520
aa(lp3521
S'557'
p3522
aS'556'
p3523
aS'1284'
p3524
aS'879'
p3525
aS'374'
p3526
aS'391'
p3527
aS'1767'
p3528
aS'544'
p3529
aS'548'
p3530
aS'410'
p3531
aS'412'
p3532
aS'54'
p3533
aS'526'
p3534
aS'1831'
p3535
aS'1487'
p3536
aS'1486'
p3537
aS'1488'
p3538
aS'622'
p3539
aS'1827'
p3540
aS'1216'
p3541
aS'1731'
p3542
aS'759'
p3543
aS'601'
p3544
aS'600'
p3545
aS'1690'
p3546
aS'1270'
p3547
aS'711'
p3548
aS'591'
p3549
aS'1311'
p3550
aS'440'
p3551
aS'1333'
p3552
aS'1537'
p3553
aS'642'
p3554
aS'893'
p3555
aS'894'
p3556
aS'1323'
p3557
aS'1523'
p3558
aS'598'
p3559
aS'691'
p3560
aS'31'
p3561
aS'648'
p3562
aS'1538'
p3563
aS'944'
p3564
aS'583'
p3565
aS'1502'
p3566
aS'730'
p3567
aS'560'
p3568
aS'3029'
p3569
aa(lp3570
S'1172'
p3571
aS'1178'
p3572
aS'540'
p3573
aS'1383'
p3574
aS'1154'
p3575
aS'1157'
p3576
aS'59'
p3577
aS'539'
p3578
aS'811'
p3579
aS'522'
p3580
aS'1017'
p3581
aS'1717'
p3582
aS'1135'
p3583
aS'511'
p3584
aS'209'
p3585
aS'1726'
p3586
aS'1586'
p3587
aS'508'
p3588
aS'1100'
p3589
aS'1591'
p3590
aS'1025'
p3591
aS'606'
p3592
aS'1205'
p3593
aS'1053'
p3594
aS'1059'
p3595
aS'972'
p3596
aS'883'
p3597
aS'1040'
p3598
aS'1046'
p3599
aS'668'
p3600
aS'870'
p3601
aS'642'
p3602
aS'1096'
p3603
aS'670'
p3604
aS'719'
p3605
aS'1086'
p3606
aS'592'
p3607
aS'441'
p3608
aS'1241'
p3609
aS'706'
p3610
aS'997'
p3611
aS'570'
p3612
aS'1511'
p3613
aS'1633'
p3614
aS'1164'
p3615
aS'1201'
p3616
aS'1895'
p3617
aa(lp3618
S'297'
p3619
aS'681'
p3620
aS'548'
p3621
aS'436'
p3622
aS'437'
p3623
aS'435'
p3624
aS'1001'
p3625
aS'508'
p3626
aS'1106'
p3627
aS'844'
p3628
aS'715'
p3629
aS'72'
p3630
aS'661'
p3631
aS'872'
p3632
aS'441'
p3633
aS'462'
p3634
aS'1637'
p3635
aS'1183'
p3636
aS'1201'
p3637
aa(lp3638
S'106'
p3639
aS'557'
p3640
aS'510'
p3641
aS'687'
p3642
aS'1221'
p3643
aS'375'
p3644
aS'391'
p3645
aS'399'
p3646
aS'398'
p3647
aS'657'
p3648
aS'1542'
p3649
aS'699'
p3650
aS'1549'
p3651
aS'548'
p3652
aS'410'
p3653
aS'1381'
p3654
aS'1553'
p3655
aS'817'
p3656
aS'525'
p3657
aS'794'
p3658
aS'513'
p3659
aS'15'
p3660
aS'836'
p3661
aS'784'
p3662
aS'218'
p3663
aS'219'
p3664
aS'917'
p3665
aS'715'
p3666
aS'610'
p3667
aS'614'
p3668
aS'72'
p3669
aS'667'
p3670
aS'1462'
p3671
aS'632'
p3672
aS'1240'
p3673
aS'871'
p3674
aS'762'
p3675
aS'597'
p3676
aS'599'
p3677
aS'445'
p3678
aS'31'
p3679
aS'30'
p3680
aS'339'
p3681
aS'134'
p3682
aS'704'
p3683
aS'701'
p3684
aS'577'
p3685
aS'731'
p3686
aS'735'
p3687
aS'736'
p3688
aS'582'
p3689
aS'358'
p3690
aS'266'
p3691
aS'560'
p3692
aS'46'
p3693
aS'1367'
p3694
aS'2876'
p3695
aS'2879'
p3696
aS'2730'
p3697
aS'2797'
p3698
aS'2848'
p3699
aS'2885'
p3700
aS'2702'
p3701
aS'2829'
p3702
aS'2759'
p3703
aS'2740'
p3704
aS'2746'
p3705
aS'2809'
p3706
aa(lp3707
S'297'
p3708
aS'106'
p3709
aS'556'
p3710
aS'687'
p3711
aS'683'
p3712
aS'397'
p3713
aS'671'
p3714
aS'55'
p3715
aS'426'
p3716
aS'930'
p3717
aS'791'
p3718
aS'219'
p3719
aS'919'
p3720
aS'72'
p3721
aS'1045'
p3722
aS'764'
p3723
aS'302'
p3724
aS'473'
p3725
aS'956'
p3726
aS'339'
p3727
aS'335'
p3728
aS'980'
p3729
aS'111'
p3730
aS'2635'
p3731
aS'2644'
p3732
aa(lp3733
S'185'
p3734
aS'33'
p3735
aa(lp3736
S'291'
p3737
aS'104'
p3738
aS'1193'
p3739
aS'1170'
p3740
aS'373'
p3741
aS'375'
p3742
aS'390'
p3743
aS'175'
p3744
aS'410'
p3745
aS'360'
p3746
aS'426'
p3747
aS'1127'
p3748
aS'63'
p3749
aS'65'
p3750
aS'1104'
p3751
aS'1205'
p3752
aS'1119'
p3753
aS'199'
p3754
aS'494'
p3755
aS'667'
p3756
ag47
aS'961'
p3757
aS'1252'
p3758
aS'1083'
p3759
aS'1026'
p3760
aS'138'
p3761
aS'709'
p3762
aS'81'
p3763
aS'327'
p3764
aS'123'
p3765
aS'127'
p3766
aS'353'
p3767
aS'359'
p3768
aS'289'
p3769
aS'569'
p3770
aa(lp3771
S'550'
p3772
aS'689'
p3773
aS'11'
p3774
aS'19'
p3775
aS'486'
p3776
aS'772'
p3777
aa(lp3778
S'558'
p3779
aS'551'
p3780
aS'687'
p3781
aS'657'
p3782
aS'548'
p3783
aS'525'
p3784
aS'437'
p3785
aS'19'
p3786
aS'710'
p3787
aS'882'
p3788
aS'666'
p3789
aS'874'
p3790
aS'642'
p3791
aS'441'
p3792
aS'1428'
p3793
aS'560'
p3794
aa(lp3795
S'1193'
p3796
aS'1810'
p3797
aS'54'
p3798
aS'1259'
p3799
aS'11'
p3800
aS'840'
p3801
aS'461'
p3802
aS'1309'
p3803
aS'1689'
p3804
aS'1266'
p3805
aS'769'
p3806
aS'1320'
p3807
aS'943'
p3808
aS'651'
p3809
aS'659'
p3810
aS'999'
p3811
aS'1166'
p3812
aa(lp3813
S'624'
p3814
aS'393'
p3815
aS'179'
p3816
aS'544'
p3817
aS'59'
p3818
aS'425'
p3819
aS'230'
p3820
aS'145'
p3821
ag325
aS'1826'
p3822
aS'215'
p3823
aS'459'
p3824
aS'486'
p3825
aS'483'
p3826
aS'1313'
p3827
aS'766'
p3828
aS'306'
p3829
aS'130'
p3830
aS'565'
p3831
aS'1290'
p3832
aa(lp3833
S'348'
p3834
aS'1173'
p3835
aS'681'
p3836
aS'378'
p3837
aS'1542'
p3838
aS'767'
p3839
aS'411'
p3840
aS'1150'
p3841
aS'50'
p3842
aS'426'
p3843
aS'1486'
p3844
aS'797'
p3845
aS'512'
p3846
aS'500'
p3847
aS'4'
p3848
ag3277
aS'1270'
p3849
aS'772'
p3850
aS'760'
p3851
aS'1322'
p3852
aS'597'
p3853
aS'441'
p3854
aS'651'
p3855
aS'726'
p3856
aS'44'
p3857
aa(lp3858
S'297'
p3859
aS'106'
p3860
aS'391'
p3861
aS'544'
p3862
aS'414'
p3863
aS'413'
p3864
aS'422'
p3865
aS'435'
p3866
aS'431'
p3867
aS'518'
p3868
aS'1827'
p3869
aS'755'
p3870
aS'716'
p3871
aS'494'
p3872
aS'319'
p3873
aS'632'
p3874
aS'764'
p3875
aS'679'
p3876
aS'302'
p3877
aS'473'
p3878
aS'441'
p3879
aS'30'
p3880
aS'1345'
p3881
aS'736'
p3882
aS'46'
p3883
aa(lp3884
S'233'
p3885
aa(lp3886
S'10'
p3887
aS'13'
p3888
aS'14'
p3889
aS'25'
p3890
aa(lp3891
S'348'
p3892
aS'503'
p3893
ag3277
aS'33'
p3894
aa(lp3895
S'11'
p3896
aS'14'
p3897
aS'20'
p3898
aS'116'
p3899
aS'119'
p3900
aa(lp3901
S'96'
p3902
aS'1139'
p3903
aS'10'
p3904
aS'467'
p3905
aS'490'
p3906
aS'31'
p3907
aa(lp3908
S'526'
p3909
aS'440'
p3910
aa(lp3911
a(lp3912
a(lp3913
a(lp3914
a(lp3915
a(lp3916
a(lp3917
a(lp3918
a(lp3919
a(lp3920
a(lp3921
a(lp3922
a(lp3923
a(lp3924
a(lp3925
a(lp3926
a(lp3927
a(lp3928
a(lp3929
a(lp3930
a(lp3931
a(lp3932
a(lp3933
a(lp3934
a(lp3935
a(lp3936
a(lp3937
a(lp3938
a(lp3939
a(lp3940
a(lp3941
a(lp3942
a(lp3943
a(lp3944
a(lp3945
a(lp3946
a(lp3947
a(lp3948
a(lp3949
a(lp3950
a(lp3951
a(lp3952
a(lp3953
a(lp3954
a(lp3955
a(lp3956
S'314'
p3957
aa(lp3958
a(lp3959
a(lp3960
a(lp3961
a(lp3962
a(lp3963
a(lp3964
a(lp3965
a(lp3966
a(lp3967
a(lp3968
a(lp3969
a(lp3970
a(lp3971
a(lp3972
a(lp3973
a(lp3974
a(lp3975
a(lp3976
a(lp3977
a(lp3978
a(lp3979
S'322'
p3980
aa(lp3981
a(lp3982
a(lp3983
a(lp3984
a(lp3985
a(lp3986
a(lp3987
a(lp3988
a(lp3989
a(lp3990
a(lp3991
a(lp3992
a(lp3993
a(lp3994
a(lp3995
a(lp3996
a(lp3997
a(lp3998
a(lp3999
a(lp4000
a(lp4001
a(lp4002
a(lp4003
a(lp4004
a(lp4005
a(lp4006
a(lp4007
a(lp4008
a(lp4009
a(lp4010
a(lp4011
a(lp4012
a(lp4013
a(lp4014
a(lp4015
a(lp4016
a(lp4017
a(lp4018
a(lp4019
a(lp4020
a(lp4021
a(lp4022
a(lp4023
a(lp4024
a(lp4025
a(lp4026
a(lp4027
a(lp4028
a(lp4029
a(lp4030
a(lp4031
a(lp4032
a(lp4033
a(lp4034
a(lp4035
a(lp4036
a(lp4037
a(lp4038
a(lp4039
a(lp4040
a(lp4041
a(lp4042
a(lp4043
a(lp4044
a(lp4045
a(lp4046
a(lp4047
a(lp4048
a(lp4049
a(lp4050
a(lp4051
a(lp4052
a(lp4053
a(lp4054
a(lp4055
a(lp4056
a(lp4057
a(lp4058
a(lp4059
a(lp4060
a(lp4061
a(lp4062
a(lp4063
a(lp4064
a(lp4065
a(lp4066
a(lp4067
a(lp4068
a(lp4069
a(lp4070
a(lp4071
a(lp4072
a(lp4073
S'642'
p4074
aa(lp4075
a(lp4076
a(lp4077
a(lp4078
a(lp4079
a(lp4080
a(lp4081
a(lp4082
a(lp4083
a(lp4084
a(lp4085
a(lp4086
a(lp4087
a(lp4088
a(lp4089
a(lp4090
a(lp4091
a(lp4092
a(lp4093
S'601'
p4094
aa(lp4095
S'411'
p4096
aS'537'
p4097
aa(lp4098
a(lp4099
a(lp4100
S'11'
p4101
aa(lp4102
S'857'
p4103
aa(lp4104
a(lp4105
a(lp4106
S'499'
p4107
aS'20'
p4108
aS'642'
p4109
aa(lp4110
a(lp4111
a(lp4112
a(lp4113
S'141'
p4114
aa(lp4115
a(lp4116
a(lp4117
a(lp4118
a(lp4119
a(lp4120
a(lp4121
a(lp4122
a(lp4123
a(lp4124
a(lp4125
a(lp4126
a(lp4127
a(lp4128
a(lp4129
a(lp4130
a(lp4131
a(lp4132
a(lp4133
a(lp4134
a(lp4135
a(lp4136
a(lp4137
a(lp4138
a(lp4139
a(lp4140
a(lp4141
a(lp4142
a(lp4143
a(lp4144
a(lp4145
a(lp4146
a(lp4147
a(lp4148
a(lp4149
a(lp4150
a(lp4151
a(lp4152
a(lp4153
a(lp4154
a(lp4155
a(lp4156
a(lp4157
a(lp4158
a(lp4159
a(lp4160
a(lp4161
a(lp4162
a(lp4163
a(lp4164
a(lp4165
a(lp4166
a(lp4167
a(lp4168
a(lp4169
a(lp4170
a(lp4171
a(lp4172
a(lp4173
a(lp4174
a(lp4175
a(lp4176
a(lp4177
a(lp4178
a(lp4179
a(lp4180
a(lp4181
a(lp4182
a(lp4183
a(lp4184
a(lp4185
a(lp4186
a(lp4187
a(lp4188
a(lp4189
a(lp4190
a(lp4191
a(lp4192
a(lp4193
a(lp4194
a(lp4195
a(lp4196
a(lp4197
a(lp4198
a(lp4199
a(lp4200
a(lp4201
a(lp4202
a(lp4203
a(lp4204
a(lp4205
a(lp4206
a(lp4207
a(lp4208
a(lp4209
a(lp4210
a(lp4211
a(lp4212
a(lp4213
a(lp4214
a(lp4215
a(lp4216
a(lp4217
a(lp4218
a(lp4219
a(lp4220
a(lp4221
a(lp4222
a(lp4223
a(lp4224
a(lp4225
a(lp4226
a(lp4227
a(lp4228
a(lp4229
a(lp4230
a(lp4231
a(lp4232
a(lp4233
a(lp4234
a(lp4235
a(lp4236
a(lp4237
a(lp4238
a(lp4239
a(lp4240
a(lp4241
a(lp4242
a(lp4243
a(lp4244
a(lp4245
a(lp4246
a(lp4247
a(lp4248
a(lp4249
a(lp4250
a(lp4251
a(lp4252
a(lp4253
a(lp4254
a(lp4255
a(lp4256
a(lp4257
a(lp4258
a(lp4259
a(lp4260
a(lp4261
a(lp4262
a(lp4263
a(lp4264
a(lp4265
a(lp4266
a(lp4267
a(lp4268
a(lp4269
a(lp4270
a(lp4271
a(lp4272
a(lp4273
a(lp4274
S'654'
p4275
aS'692'
p4276
aS'252'
p4277
aS'427'
p4278
aS'799'
p4279
aS'1006'
p4280
aS'639'
p4281
aS'1105'
p4282
aS'743'
p4283
aS'717'
p4284
aS'715'
p4285
aS'867'
p4286
aS'962'
p4287
aS'645'
p4288
aS'678'
p4289
aS'697'
p4290
aS'587'
p4291
aS'722'
p4292
aS'739'
p4293
aS'567'
p4294
aS'3089'
p4295
aa(lp4296
S'654'
p4297
aS'384'
p4298
aS'54'
p4299
aS'531'
p4300
aS'235'
p4301
aS'145'
p4302
aS'217'
p4303
aS'421'
p4304
aS'857'
p4305
aS'678'
p4306
aS'646'
p4307
aS'478'
p4308
aa(lp4309
S'278'
p4310
aS'105'
p4311
aS'514'
p4312
aS'652'
p4313
aS'900'
p4314
aS'164'
p4315
aS'817'
p4316
aS'1014'
p4317
aS'488'
p4318
aS'486'
p4319
aS'483'
p4320
aS'197'
p4321
aS'857'
p4322
aS'851'
p4323
aS'70'
p4324
aS'1087'
p4325
aS'697'
p4326
aS'322'
p4327
aS'326'
p4328
aS'475'
p4329
aS'478'
p4330
aS'3024'
p4331
aa(lp4332
S'1276'
p4333
ag3440
ag3848
aS'1271'
p4334
aS'888'
p4335
aS'1316'
p4336
aS'33'
p4337
aa(lp4338
S'24'
p4339
aS'724'
p4340
aa(lp4341
S'227'
p4342
aS'19'
p4343
aS'1095'
p4344
aa(lp4345
S'349'
p4346
aS'364'
p4347
aS'427'
p4348
aS'1006'
p4349
aS'316'
p4350
aS'449'
p4351
aa(lp4352
S'688'
p4353
aS'1014'
p4354
aS'848'
p4355
aS'421'
p4356
aS'857'
p4357
aS'851'
p4358
aS'27'
p4359
aS'264'
p4360
aa(lp4361
S'1143'
p4362
aS'383'
p4363
aS'534'
p4364
aS'826'
p4365
aS'784'
p4366
aS'786'
p4367
aS'638'
p4368
aS'783'
p4369
aa(lp4370
S'241'
p4371
aS'13'
p4372
aS'1023'
p4373
aa(lp4374
S'278'
p4375
aS'393'
p4376
aS'414'
p4377
aS'388'
p4378
aS'57'
p4379
aS'1704'
p4380
aS'438'
p4381
aS'513'
p4382
aS'217'
p4383
aS'459'
p4384
aS'1441'
p4385
aS'483'
p4386
aS'197'
p4387
aS'313'
p4388
aS'322'
p4389
aS'324'
p4390
aS'125'
p4391
aS'113'
p4392
aa(lp4393
S'802'
p4394
aS'509'
p4395
aS'600'
p4396
aS'498'
p4397
aS'27'
p4398
aS'642'
p4399
aS'645'
p4400
aS'597'
p4401
aa(lp4402
S'227'
p4403
aS'826'
p4404
aS'628'
p4405
aS'1720'
p4406
aS'507'
p4407
aS'639'
p4408
aS'602'
p4409
aS'645'
p4410
aS'120'
p4411
aS'1518'
p4412
aS'358'
p4413
aa(lp4414
S'513'
p4415
aS'1100'
p4416
aS'1205'
p4417
aS'858'
p4418
aS'716'
p4419
aS'672'
p4420
aS'1637'
p4421
aS'569'
p4422
aS'724'
p4423
aa(lp4424
S'383'
p4425
aS'54'
p4426
aS'50'
p4427
aS'817'
p4428
aS'1122'
p4429
aS'10'
p4430
aS'14'
p4431
aS'617'
p4432
aS'1040'
p4433
ag47
aS'739'
p4434
aa(lp4435
S'552'
p4436
aS'549'
p4437
aS'505'
p4438
aS'1035'
p4439
aS'841'
p4440
aa(lp4441
S'1145'
p4442
aS'1113'
p4443
aS'1266'
p4444
aS'1260'
p4445
aS'1425'
p4446
aS'2189'
p4447
aS'2230'
p4448
aa(lp4449
S'552'
p4450
aS'688'
p4451
aS'54'
p4452
aS'52'
p4453
aS'532'
p4454
aS'817'
p4455
aS'1371'
p4456
aS'717'
p4457
aS'619'
p4458
aS'1303'
p4459
aS'1269'
p4460
aS'1344'
p4461
aS'1426'
p4462
aS'350'
p4463
aS'475'
p4464
aS'2232'
p4465
aS'2551'
p4466
aS'2591'
p4467
aa(lp4468
S'12'
p4469
aS'25'
p4470
aa(lp4471
S'291'
p4472
ag325
aS'209'
p4473
aS'467'
p4474
aS'498'
p4475
aS'31'
p4476
aS'1427'
p4477
aS'568'
p4478
aS'44'
p4479
aa(lp4480
S'1173'
p4481
aS'657'
p4482
aS'1155'
p4483
aS'1157'
p4484
aS'1153'
p4485
aS'1834'
p4486
aS'1136'
p4487
aS'1102'
p4488
aS'906'
p4489
aS'1058'
p4490
aS'978'
p4491
aS'1680'
p4492
aS'668'
p4493
aS'1264'
p4494
aS'1313'
p4495
aS'870'
p4496
aS'871'
p4497
aS'1096'
p4498
aS'1322'
p4499
aS'1064'
p4500
aS'704'
p4501
aS'705'
p4502
aS'1659'
p4503
aS'1340'
p4504
aS'651'
p4505
aS'572'
p4506
aS'1796'
p4507
aS'565'
p4508
aS'1188'
p4509
aS'1189'
p4510
aS'1186'
p4511
aS'1166'
p4512
aS'1990'
p4513
aS'1815'
p4514
aS'1944'
p4515
aS'2701'
p4516
aS'2621'
p4517
aS'2561'
p4518
aS'1862'
p4519
aS'1894'
p4520
aS'2130'
p4521
aa(lp4522
S'1627'
p4523
aS'1759'
p4524
aS'1758'
p4525
aS'1756'
p4526
aS'1755'
p4527
aS'1754'
p4528
aS'1753'
p4529
aS'1752'
p4530
aS'1751'
p4531
aS'1750'
p4532
aS'1289'
p4533
aS'1221'
p4534
aS'1505'
p4535
aS'1765'
p4536
aS'1543'
p4537
aS'1784'
p4538
aS'1381'
p4539
aS'808'
p4540
aS'1557'
p4541
aS'1702'
p4542
aS'1703'
p4543
aS'1124'
p4544
aS'1571'
p4545
aS'838'
p4546
aS'1729'
p4547
aS'1038'
p4548
aS'1212'
p4549
aS'1104'
p4550
aS'1850'
p4551
aS'1856'
p4552
aS'1739'
p4553
aS'1738'
p4554
aS'1736'
p4555
aS'1591'
p4556
aS'1849'
p4557
aS'1846'
p4558
aS'1055'
p4559
aS'615'
p4560
aS'775'
p4561
aS'1075'
p4562
aS'1262'
p4563
aS'1244'
p4564
aS'1538'
p4565
aS'1883'
p4566
aS'1882'
p4567
aS'991'
p4568
aS'1640'
p4569
aS'572'
p4570
aS'1637'
p4571
aS'1748'
p4572
aS'1747'
p4573
aS'1740'
p4574
aS'1741'
p4575
aS'1743'
p4576
aS'1713'
p4577
aS'1712'
p4578
aS'2773'
p4579
aS'2762'
p4580
aS'2562'
p4581
aS'2651'
p4582
aS'2799'
p4583
aS'2800'
p4584
aS'2804'
p4585
aS'2782'
p4586
aS'2789'
p4587
aS'2817'
p4588
aa(lp4589
S'1626'
p4590
aS'1578'
p4591
aS'1543'
p4592
aS'52'
p4593
aS'535'
p4594
aS'1526'
p4595
aS'1491'
p4596
aS'1482'
p4597
aS'1487'
p4598
aS'1002'
p4599
aS'755'
p4600
aS'1031'
p4601
aS'1023'
p4602
aS'1314'
p4603
aS'1311'
p4604
aS'1531'
p4605
aS'1522'
p4606
aS'1664'
p4607
aS'1339'
p4608
aS'1538'
p4609
aS'1026'
p4610
aS'1340'
p4611
aS'1345'
p4612
aS'981'
p4613
aS'1713'
p4614
aa(lp4615
S'1620'
p4616
aS'1626'
p4617
aS'624'
p4618
aS'1501'
p4619
aS'1619'
p4620
aS'1765'
p4621
aS'692'
p4622
aS'547'
p4623
aS'804'
p4624
aS'1553'
p4625
aS'811'
p4626
aS'1124'
p4627
aS'715'
p4628
aS'774'
p4629
aS'1316'
p4630
aS'959'
p4631
aS'648'
p4632
aS'943'
p4633
aS'1598'
p4634
aS'1642'
p4635
aS'1835'
p4636
aS'1166'
p4637
aS'1990'
p4638
aS'1994'
p4639
aS'1969'
p4640
aS'1964'
p4641
aS'1966'
p4642
aS'1979'
p4643
aS'1948'
p4644
aS'1940'
p4645
aS'2983'
p4646
aS'1953'
p4647
aS'2884'
p4648
aS'2700'
p4649
aS'1926'
p4650
aS'3005'
p4651
aS'1933'
p4652
aS'2956'
p4653
aS'2951'
p4654
aS'1844'
p4655
aS'1906'
p4656
aS'1904'
p4657
aS'1902'
p4658
aS'1912'
p4659
aS'2980'
p4660
aS'2633'
p4661
aS'2632'
p4662
aS'2961'
p4663
aS'1899'
p4664
aS'2919'
p4665
aS'1880'
p4666
aS'2019'
p4667
aS'2837'
p4668
aS'2938'
p4669
aS'2936'
p4670
aS'2933'
p4671
aS'2808'
p4672
aS'2809'
p4673
aS'2929'
p4674
aS'1986'
p4675
aS'1989'
p4676
aa(lp4677
S'276'
p4678
aS'278'
p4679
aS'1172'
p4680
aS'1346'
p4681
aS'241'
p4682
aS'1764'
p4683
aS'544'
p4684
aS'365'
p4685
aS'791'
p4686
aS'921'
p4687
aS'505'
p4688
aS'782'
p4689
aS'1458'
p4690
aS'750'
p4691
aS'1025'
p4692
aS'1024'
p4693
aS'1031'
p4694
aS'1036'
p4695
aS'615'
p4696
aS'1309'
p4697
aS'869'
p4698
aS'886'
p4699
aS'313'
p4700
aS'1063'
p4701
aS'991'
p4702
aS'992'
p4703
aS'999'
p4704
aS'998'
p4705
aS'1208'
p4706
aS'1420'
p4707
aS'354'
p4708
aS'287'
p4709
aS'988'
p4710
aS'983'
p4711
aS'980'
p4712
aS'1637'
p4713
aS'1745'
p4714
aS'2684'
p4715
aS'2683'
p4716
aS'2692'
p4717
aS'2791'
p4718
aS'2734'
p4719
aS'2736'
p4720
aS'2730'
p4721
aS'2739'
p4722
aS'1972'
p4723
aS'2726'
p4724
aS'2725'
p4725
aS'2729'
p4726
aS'2728'
p4727
aS'1948'
p4728
aS'1947'
p4729
aS'2539'
p4730
aS'2533'
p4731
aS'2536'
p4732
aS'2537'
p4733
aS'2535'
p4734
aS'2710'
p4735
aS'2711'
p4736
aS'2717'
p4737
aS'2708'
p4738
aS'2704'
p4739
aS'2700'
p4740
aS'2703'
p4741
aS'2550'
p4742
aS'2553'
p4743
aS'2554'
p4744
aS'2559'
p4745
aS'2608'
p4746
aS'2547'
p4747
aS'2546'
p4748
aS'2545'
p4749
aS'2544'
p4750
aS'2548'
p4751
aS'2761'
p4752
aS'2574'
p4753
aS'2573'
p4754
aS'2570'
p4755
aS'2571'
p4756
aS'2626'
p4757
aS'2627'
p4758
aS'2625'
p4759
aS'2758'
p4760
aS'2560'
p4761
aS'2562'
p4762
aS'2565'
p4763
aS'2567'
p4764
aS'2582'
p4765
aS'2580'
p4766
aS'2589'
p4767
aS'2588'
p4768
aS'2637'
p4769
aS'2636'
p4770
aS'2631'
p4771
aS'2630'
p4772
aS'2633'
p4773
aS'2743'
p4774
aS'2745'
p4775
aS'2648'
p4776
aS'2645'
p4777
aS'2000'
p4778
aS'2651'
p4779
aS'2650'
p4780
aS'2657'
p4781
aS'2655'
p4782
aS'2796'
p4783
aS'2795'
p4784
aS'2667'
p4785
aS'2660'
p4786
aS'2661'
p4787
aS'2668'
p4788
aS'2669'
p4789
aS'2784'
p4790
aS'2783'
p4791
aS'2788'
p4792
aS'2675'
p4793
aS'2679'
p4794
aa(lp4795
S'1194'
p4796
aS'621'
p4797
aS'1702'
p4798
aS'825'
p4799
aS'1009'
p4800
aS'1823'
p4801
aS'786'
p4802
aS'1723'
p4803
aS'1371'
p4804
aS'783'
p4805
aS'1853'
p4806
aS'914'
p4807
aS'1597'
p4808
aS'1593'
p4809
aS'1055'
p4810
aS'775'
p4811
aS'897'
p4812
aS'1675'
p4813
aS'1673'
p4814
aS'959'
p4815
aS'648'
p4816
aS'326'
p4817
aS'1357'
p4818
aS'1181'
p4819
aS'1169'
p4820
aS'2698'
p4821
aS'2847'
p4822
aS'2844'
p4823
aS'2845'
p4824
aS'2843'
p4825
aS'2726'
p4826
aS'2721'
p4827
aS'2728'
p4828
aS'2794'
p4829
aS'2894'
p4830
aS'2765'
p4831
aS'2115'
p4832
aS'2626'
p4833
aS'2824'
p4834
aS'2826'
p4835
aS'2827'
p4836
aS'2821'
p4837
aS'2823'
p4838
aS'2653'
p4839
aS'2839'
p4840
aS'2838'
p4841
aS'2837'
p4842
aS'2836'
p4843
aS'2833'
p4844
aS'2832'
p4845
aS'2830'
p4846
aS'2806'
p4847
aS'2804'
p4848
aS'2785'
p4849
aS'2781'
p4850
aS'2921'
p4851
aS'2818'
p4852
aa(lp4853
S'1172'
p4854
aS'1286'
p4855
aS'624'
p4856
aS'692'
p4857
aS'1609'
p4858
aS'1607'
p4859
aS'1491'
p4860
aS'1237'
p4861
aS'827'
p4862
aS'826'
p4863
aS'929'
p4864
aS'1376'
p4865
aS'913'
p4866
aS'607'
p4867
aS'1110'
p4868
aS'1841'
p4869
aS'850'
p4870
aS'775'
p4871
aS'1687'
p4872
aS'1072'
p4873
aS'1063'
p4874
aS'1086'
p4875
aS'1357'
p4876
aS'1183'
p4877
aS'720'
p4878
aS'1817'
p4879
aS'1949'
p4880
aS'2941'
p4881
aS'1894'
p4882
aS'2928'
p4883
aa(lp4884
S'1004'
p4885
aS'624'
p4886
aS'1346'
p4887
aS'1764'
p4888
aS'692'
p4889
aS'541'
p4890
aS'1810'
p4891
aS'801'
p4892
aS'1556'
p4893
aS'1018'
p4894
aS'1015'
p4895
aS'796'
p4896
aS'785'
p4897
aS'786'
p4898
aS'914'
p4899
aS'846'
p4900
aS'1039'
p4901
aS'750'
p4902
aS'1031'
p4903
aS'1050'
p4904
aS'1051'
p4905
aS'1053'
p4906
aS'1055'
p4907
aS'716'
p4908
aS'615'
p4909
aS'973'
p4910
aS'970'
p4911
aS'774'
p4912
aS'1046'
p4913
aS'1045'
p4914
aS'1048'
p4915
aS'1011'
p4916
aS'1867'
p4917
aS'967'
p4918
aS'870'
p4919
aS'1072'
p4920
aS'1672'
p4921
aS'958'
p4922
aS'957'
p4923
aS'665'
p4924
aS'596'
p4925
aS'649'
p4926
aS'1026'
p4927
aS'997'
p4928
aS'996'
p4929
aS'998'
p4930
aS'572'
p4931
aS'1429'
p4932
aS'980'
p4933
aS'1634'
p4934
aS'1186'
p4935
aS'1180'
p4936
aS'1201'
p4937
aS'2684'
p4938
aS'2686'
p4939
aS'2687'
p4940
aS'2680'
p4941
aS'2681'
p4942
aS'2682'
p4943
aS'2869'
p4944
aS'2698'
p4945
aS'2695'
p4946
aS'2690'
p4947
aS'1962'
p4948
aS'2876'
p4949
aS'2875'
p4950
aS'2879'
p4951
aS'2878'
p4952
aS'2736'
p4953
aS'2738'
p4954
aS'2739'
p4955
aS'1812'
p4956
aS'1972'
p4957
aS'2848'
p4958
aS'2846'
p4959
aS'2727'
p4960
aS'2726'
p4961
aS'2724'
p4962
aS'2723'
p4963
aS'2722'
p4964
aS'2721'
p4965
aS'2720'
p4966
aS'2729'
p4967
aS'1943'
p4968
aS'1941'
p4969
aS'2534'
p4970
aS'2535'
p4971
aS'2712'
p4972
aS'2711'
p4973
aS'1839'
p4974
aS'2792'
p4975
aS'2886'
p4976
aS'2889'
p4977
aS'2527'
p4978
aS'2528'
p4979
aS'2704'
p4980
aS'2707'
p4981
aS'2701'
p4982
aS'2700'
p4983
aS'3000'
p4984
aS'3002'
p4985
aS'2894'
p4986
aS'2550'
p4987
aS'2779'
p4988
aS'2777'
p4989
aS'2605'
p4990
aS'2606'
p4991
aS'2601'
p4992
aS'2608'
p4993
aS'1930'
p4994
aS'2950'
p4995
aS'2952'
p4996
aS'2953'
p4997
aS'2547'
p4998
aS'2545'
p4999
aS'2617'
p5000
aS'2615'
p5001
aS'2613'
p5002
aS'2610'
p5003
aS'2619'
p5004
aS'2618'
p5005
aS'1904'
p5006
aS'2947'
p5007
aS'2594'
p5008
aS'2595'
p5009
aS'2596'
p5010
aS'2590'
p5011
aS'2599'
p5012
aS'1876'
p5013
aS'2620'
p5014
aS'2621'
p5015
aS'2625'
p5016
aS'2824'
p5017
aS'2970'
p5018
aS'2976'
p5019
aS'2982'
p5020
aS'2569'
p5021
aS'2563'
p5022
aS'2566'
p5023
aS'2588'
p5024
aS'1865'
p5025
aS'1864'
p5026
aS'1867'
p5027
aS'2639'
p5028
aS'2635'
p5029
aS'2630'
p5030
aS'2745'
p5031
aS'2746'
p5032
aS'2961'
p5033
aS'2960'
p5034
aS'1897'
p5035
aS'1891'
p5036
aS'1892'
p5037
aS'1893'
p5038
aS'2645'
p5039
aS'2826'
p5040
aS'2827'
p5041
aS'1884'
p5042
aS'1880'
p5043
aS'2659'
p5044
aS'2658'
p5045
aS'2652'
p5046
aS'2651'
p5047
aS'2657'
p5048
aS'2655'
p5049
aS'2903'
p5050
aS'2905'
p5051
aS'2909'
p5052
aS'2837'
p5053
aS'2836'
p5054
aS'2834'
p5055
aS'2832'
p5056
aS'2665'
p5057
aS'2661'
p5058
aS'2669'
p5059
aS'2938'
p5060
aS'2934'
p5061
aS'2932'
p5062
aS'2933'
p5063
aS'2800'
p5064
aS'2801'
p5065
aS'2807'
p5066
aS'2805'
p5067
aS'2785'
p5068
aS'2789'
p5069
aS'2671'
p5070
aS'2673'
p5071
aS'2677'
p5072
aS'2679'
p5073
aS'2920'
p5074
aS'1980'
p5075
aS'2810'
p5076
aS'2813'
p5077
aa(lp5078
S'1173'
p5079
aS'1158'
p5080
aS'1154'
p5081
aS'811'
p5082
aS'1237'
p5083
aS'1131'
p5084
aS'1276'
p5085
aS'1277'
p5086
ag325
aS'1448'
p5087
aS'906'
p5088
aS'1271'
p5089
aS'1302'
p5090
aS'1462'
p5091
aS'1099'
p5092
aS'1169'
p5093
aS'1991'
p5094
aS'1993'
p5095
aS'1906'
p5096
aS'1900'
p5097
aS'1875'
p5098
aS'2023'
p5099
aS'1899'
p5100
aS'1989'
p5101
aa(lp5102
S'1171'
p5103
aS'243'
p5104
aS'692'
p5105
aS'698'
p5106
aS'364'
p5107
aS'382'
p5108
aS'801'
p5109
aS'1152'
p5110
aS'813'
p5111
aS'1701'
p5112
aS'1012'
p5113
aS'825'
p5114
aS'794'
p5115
aS'790'
p5116
aS'785'
p5117
aS'401'
p5118
aS'783'
p5119
aS'1104'
p5120
aS'914'
p5121
aS'1118'
p5122
aS'715'
p5123
aS'869'
p5124
aS'863'
p5125
aS'870'
p5126
aS'642'
p5127
aS'897'
p5128
aS'958'
p5129
aS'957'
p5130
aS'594'
p5131
aS'648'
p5132
aS'991'
p5133
aS'734'
p5134
aS'984'
p5135
aS'1188'
p5136
aS'1182'
p5137
aS'1183'
p5138
aS'720'
p5139
aS'2689'
p5140
aS'2687'
p5141
aS'2680'
p5142
aS'2742'
p5143
aS'2699'
p5144
aS'2698'
p5145
aS'2697'
p5146
aS'2696'
p5147
aS'2695'
p5148
aS'2694'
p5149
aS'2691'
p5150
aS'2690'
p5151
aS'2791'
p5152
aS'2736'
p5153
aS'2737'
p5154
aS'2730'
p5155
aS'2732'
p5156
aS'2733'
p5157
aS'2738'
p5158
aS'2739'
p5159
aS'2797'
p5160
aS'2848'
p5161
aS'2847'
p5162
aS'2842'
p5163
aS'2840'
p5164
aS'2841'
p5165
aS'2998'
p5166
aS'2990'
p5167
aS'2995'
p5168
aS'2993'
p5169
aS'2727'
p5170
aS'2726'
p5171
aS'2725'
p5172
aS'2723'
p5173
aS'2722'
p5174
aS'2721'
p5175
aS'2720'
p5176
aS'2729'
p5177
aS'2728'
p5178
aS'2853'
p5179
aS'2852'
p5180
aS'2985'
p5181
aS'2712'
p5182
aS'2713'
p5183
aS'2710'
p5184
aS'2711'
p5185
aS'2717'
p5186
aS'2715'
p5187
aS'2718'
p5188
aS'2719'
p5189
aS'2792'
p5190
aS'2793'
p5191
aS'2790'
p5192
aS'2794'
p5193
aS'2882'
p5194
aS'2881'
p5195
aS'2888'
p5196
aS'2709'
p5197
aS'2708'
p5198
aS'2705'
p5199
aS'2704'
p5200
aS'2707'
p5201
aS'2706'
p5202
aS'2701'
p5203
aS'2703'
p5204
aS'2702'
p5205
aS'3004'
p5206
aS'3007'
p5207
aS'3006'
p5208
aS'3001'
p5209
aS'3003'
p5210
aS'3002'
p5211
aS'2899'
p5212
aS'2895'
p5213
aS'2894'
p5214
aS'2891'
p5215
aS'2890'
p5216
aS'2892'
p5217
aS'2778'
p5218
aS'2779'
p5219
aS'2770'
p5220
aS'2772'
p5221
aS'2773'
p5222
aS'2776'
p5223
aS'2777'
p5224
aS'2604'
p5225
aS'2605'
p5226
aS'2601'
p5227
aS'2602'
p5228
aS'2603'
p5229
aS'2608'
p5230
aS'2609'
p5231
aS'2958'
p5232
aS'2955'
p5233
aS'2950'
p5234
aS'2762'
p5235
aS'2767'
p5236
aS'2765'
p5237
aS'2764'
p5238
aS'2615'
p5239
aS'2619'
p5240
aS'2949'
p5241
aS'2940'
p5242
aS'2576'
p5243
aS'2577'
p5244
aS'2572'
p5245
aS'2593'
p5246
aS'2598'
p5247
aS'2599'
p5248
aS'2622'
p5249
aS'2627'
p5250
aS'2628'
p5251
aS'2629'
p5252
aS'2828'
p5253
aS'2824'
p5254
aS'2825'
p5255
aS'2756'
p5256
aS'2754'
p5257
aS'2755'
p5258
aS'2751'
p5259
aS'2568'
p5260
aS'2561'
p5261
aS'2565'
p5262
aS'2585'
p5263
aS'2581'
p5264
aS'2580'
p5265
aS'2589'
p5266
aS'2637'
p5267
aS'2747'
p5268
aS'2746'
p5269
aS'2748'
p5270
aS'2974'
p5271
aS'2641'
p5272
aS'2643'
p5273
aS'2826'
p5274
aS'2827'
p5275
aS'2659'
p5276
aS'2658'
p5277
aS'2657'
p5278
aS'2656'
p5279
aS'2654'
p5280
aS'2902'
p5281
aS'2905'
p5282
aS'2908'
p5283
aS'2838'
p5284
aS'2837'
p5285
aS'2831'
p5286
aS'2798'
p5287
aS'2666'
p5288
aS'2662'
p5289
aS'2663'
p5290
aS'2661'
p5291
aS'2669'
p5292
aS'2938'
p5293
aS'2932'
p5294
aS'2933'
p5295
aS'2931'
p5296
aS'2808'
p5297
aS'2800'
p5298
aS'2801'
p5299
aS'2807'
p5300
aS'2804'
p5301
aS'2783'
p5302
aS'2782'
p5303
aS'2788'
p5304
aS'2671'
p5305
aS'2675'
p5306
aS'2674'
p5307
aS'2677'
p5308
aS'2679'
p5309
aS'2922'
p5310
aS'2925'
p5311
aS'2924'
p5312
aS'2927'
p5313
aS'2926'
p5314
aS'2817'
p5315
aS'2812'
p5316
aS'2819'
p5317
aS'2913'
p5318
aa(lp5319
S'1750'
p5320
aS'1766'
p5321
aS'1487'
p5322
aS'1228'
p5323
aS'1039'
p5324
aS'1036'
p5325
aS'1051'
p5326
aS'1055'
p5327
aS'775'
p5328
aS'1683'
p5329
aS'1095'
p5330
aS'648'
p5331
aS'520'
p5332
aS'571'
p5333
aS'983'
p5334
aS'980'
p5335
aS'1747'
p5336
aS'2733'
p5337
aS'2710'
p5338
aS'2889'
p5339
aS'2708'
p5340
aS'2554'
p5341
aS'2615'
p5342
aS'2610'
p5343
aS'2619'
p5344
aS'2594'
p5345
aS'2597'
p5346
aS'2591'
p5347
aS'2598'
p5348
aS'2568'
p5349
aS'2567'
p5350
aS'2585'
p5351
aa(lp5352
S'1173'
p5353
aS'1172'
p5354
aS'1144'
p5355
aS'540'
p5356
aS'1380'
p5357
aS'1151'
p5358
aS'1152'
p5359
aS'535'
p5360
aS'539'
p5361
aS'816'
p5362
aS'1705'
p5363
aS'1120'
p5364
aS'1125'
p5365
aS'1130'
p5366
aS'1102'
p5367
aS'1458'
p5368
aS'917'
p5369
aS'1205'
p5370
aS'1214'
p5371
aS'1456'
p5372
aS'1457'
p5373
aS'1054'
p5374
aS'1279'
p5375
aS'1271'
p5376
aS'1301'
p5377
aS'1309'
p5378
aS'868'
p5379
aS'1316'
p5380
aS'1320'
p5381
aS'1329'
p5382
aS'999'
p5383
aS'1446'
p5384
aS'1183'
p5385
aS'1990'
p5386
aS'1993'
p5387
aS'1994'
p5388
aS'1997'
p5389
aS'1996'
p5390
aS'1999'
p5391
aS'1998'
p5392
aS'2058'
p5393
aS'1968'
p5394
aS'1964'
p5395
aS'1965'
p5396
aS'1961'
p5397
aS'1962'
p5398
aS'1979'
p5399
aS'1978'
p5400
aS'1977'
p5401
aS'1974'
p5402
aS'1972'
p5403
aS'1971'
p5404
aS'1970'
p5405
aS'3030'
p5406
aS'3031'
p5407
aS'1948'
p5408
aS'1949'
p5409
aS'1942'
p5410
aS'1943'
p5411
aS'1940'
p5412
aS'1941'
p5413
aS'1947'
p5414
aS'1944'
p5415
aS'1945'
p5416
aS'3029'
p5417
aS'2082'
p5418
aS'2080'
p5419
aS'1835'
p5420
aS'1838'
p5421
aS'1953'
p5422
aS'1952'
p5423
aS'2094'
p5424
aS'2097'
p5425
aS'1825'
p5426
aS'1822'
p5427
aS'1937'
p5428
aS'1938'
p5429
aS'1843'
p5430
aS'1906'
p5431
aS'2112'
p5432
aS'1910'
p5433
aS'1865'
p5434
aS'2103'
p5435
aS'2107'
p5436
aS'2039'
p5437
aS'1899'
p5438
aS'2000'
p5439
aS'2008'
p5440
aS'2009'
p5441
aS'2018'
p5442
aS'2072'
p5443
aS'2071'
p5444
aS'2928'
p5445
aS'1986'
p5446
aS'1988'
p5447
aS'1989'
p5448
aa(lp5449
S'1172'
p5450
aS'1223'
p5451
aS'624'
p5452
aS'1372'
p5453
aS'1144'
p5454
aS'1386'
p5455
aS'1077'
p5456
aS'1084'
p5457
aS'1154'
p5458
aS'816'
p5459
aS'1122'
p5460
aS'1127'
p5461
aS'797'
p5462
aS'1136'
p5463
aS'1217'
p5464
aS'853'
p5465
aS'1059'
p5466
aS'1304'
p5467
aS'1689'
p5468
aS'1330'
p5469
aS'337'
p5470
aS'1464'
p5471
aS'1348'
p5472
aS'355'
p5473
aS'353'
p5474
aS'351'
p5475
aS'283'
p5476
aS'1169'
p5477
aS'2199'
p5478
aS'2200'
p5479
aS'2205'
p5480
aS'2217'
p5481
aS'2219'
p5482
aS'2218'
p5483
aS'2228'
p5484
aS'2226'
p5485
aS'2224'
p5486
aS'2225'
p5487
aS'2230'
p5488
aS'2232'
p5489
aS'2234'
p5490
aS'2237'
p5491
aS'2541'
p5492
aS'2245'
p5493
aS'2259'
p5494
aS'2251'
p5495
aa(lp5496
S'1780'
p5497
aS'1620'
p5498
aS'1759'
p5499
aS'1751'
p5500
aS'1784'
p5501
aS'1158'
p5502
aS'1834'
p5503
aS'939'
p5504
aS'511'
p5505
aS'1229'
p5506
aS'1823'
p5507
aS'1729'
p5508
aS'1850'
p5509
aS'1856'
p5510
aS'487'
p5511
aS'1695'
p5512
aS'972'
p5513
aS'1789'
p5514
aS'1241'
p5515
aS'1735'
p5516
aS'993'
p5517
aS'1749'
p5518
aS'1424'
p5519
aS'1747'
p5520
aS'1740'
p5521
aS'1569'
p5522
aS'1563'
p5523
aS'2695'
p5524
aS'2600'
p5525
aS'2667'
p5526
aa(lp5527
S'1004'
p5528
aS'1755'
p5529
aS'1172'
p5530
aS'1178'
p5531
aS'1007'
p5532
aS'1286'
p5533
aS'1578'
p5534
aS'407'
p5535
aS'1378'
p5536
aS'1505'
p5537
aS'1763'
p5538
aS'1766'
p5539
aS'1146'
p5540
aS'1148'
p5541
aS'1149'
p5542
aS'1380'
p5543
aS'802'
p5544
aS'1158'
p5545
aS'1153'
p5546
aS'1807'
p5547
aS'811'
p5548
aS'1012'
p5549
aS'791'
p5550
aS'1277'
p5551
aS'1823'
p5552
aS'1720'
p5553
aS'1038'
p5554
aS'1218'
p5555
aS'783'
p5556
aS'1730'
p5557
aS'1736'
p5558
aS'1118'
p5559
aS'1051'
p5560
aS'1472'
p5561
aS'1474'
p5562
aS'872'
p5563
aS'870'
p5564
aS'1072'
p5565
aS'1676'
p5566
aS'1096'
p5567
aS'1099'
p5568
aS'1063'
p5569
aS'1026'
p5570
aS'991'
p5571
aS'999'
p5572
aS'1515'
p5573
aS'1517'
p5574
aS'1512'
p5575
aS'1446'
p5576
aS'982'
p5577
aS'1181'
p5578
aS'1748'
p5579
aS'1740'
p5580
aS'1168'
p5581
aS'1568'
p5582
aS'1711'
p5583
aS'2797'
p5584
aS'2793'
p5585
aS'2705'
p5586
aS'2894'
p5587
aS'2890'
p5588
aS'2774'
p5589
aS'2544'
p5590
aS'2764'
p5591
aS'2612'
p5592
aS'2610'
p5593
aS'1872'
p5594
aS'2666'
p5595
aS'2807'
p5596
aS'2789'
p5597
aS'2810'
p5598
aS'2813'
p5599
aS'2812'
p5600
aa(lp5601
S'1780'
p5602
aS'1627'
p5603
aS'1195'
p5604
aS'1759'
p5605
aS'1758'
p5606
aS'1755'
p5607
aS'1754'
p5608
aS'1751'
p5609
aS'1219'
p5610
aS'1768'
p5611
aS'1763'
p5612
aS'1766'
p5613
aS'1145'
p5614
aS'548'
p5615
aS'1784'
p5616
aS'1819'
p5617
aS'1153'
p5618
aS'816'
p5619
aS'1703'
p5620
aS'1120'
p5621
aS'1830'
p5622
aS'1831'
p5623
aS'1136'
p5624
aS'1135'
p5625
aS'1829'
p5626
aS'832'
p5627
aS'1726'
p5628
aS'1588'
p5629
aS'1850'
p5630
aS'1853'
p5631
aS'1856'
p5632
aS'846'
p5633
aS'1739'
p5634
aS'1730'
p5635
aS'1736'
p5636
aS'1028'
p5637
aS'853'
p5638
aS'886'
p5639
aS'1680'
p5640
aS'1535'
p5641
aS'1320'
p5642
aS'1521'
p5643
aS'1791'
p5644
aS'649'
p5645
aS'1538'
p5646
aS'709'
p5647
aS'1640'
p5648
aS'1423'
p5649
aS'1182'
p5650
aS'1748'
p5651
aS'1745'
p5652
aS'1746'
p5653
aS'1747'
p5654
aS'1741'
p5655
aS'1743'
p5656
aS'1166'
p5657
aS'1290'
p5658
aS'1712'
p5659
aS'1711'
p5660
aS'1949'
p5661
aS'1947'
p5662
aS'1932'
p5663
aS'2073'
p5664
aS'2070'
p5665
aa(lp5666
S'1004'
p5667
aS'1622'
p5668
aS'1620'
p5669
aS'1626'
p5670
aS'1753'
p5671
aS'1750'
p5672
aS'1378'
p5673
aS'1346'
p5674
aS'1150'
p5675
aS'535'
p5676
aS'1702'
p5677
aS'921'
p5678
aS'832'
p5679
aS'838'
p5680
aS'1038'
p5681
aS'1100'
p5682
aS'913'
p5683
aS'840'
p5684
aS'1587'
p5685
aS'1025'
p5686
aS'1024'
p5687
aS'1031'
p5688
aS'1205'
p5689
aS'1050'
p5690
aS'1054'
p5691
aS'1696'
p5692
aS'615'
p5693
aS'978'
p5694
aS'860'
p5695
aS'864'
p5696
aS'775'
p5697
aS'72'
p5698
aS'1045'
p5699
aS'1867'
p5700
aS'870'
p5701
aS'897'
p5702
aS'1249'
p5703
aS'1320'
p5704
aS'958'
p5705
aS'1659'
p5706
aS'997'
p5707
aS'1642'
p5708
aS'1634'
p5709
aS'721'
p5710
aS'1740'
p5711
aS'1361'
p5712
aS'2684'
p5713
aS'2680'
p5714
aS'2683'
p5715
aS'2698'
p5716
aS'2691'
p5717
aS'2226'
p5718
aS'2539'
p5719
aS'2531'
p5720
aS'2537'
p5721
aS'2230'
p5722
aS'2529'
p5723
aS'2708'
p5724
aS'2700'
p5725
aS'2550'
p5726
aS'2555'
p5727
aS'2559'
p5728
aS'2770'
p5729
aS'2605'
p5730
aS'2607'
p5731
aS'2601'
p5732
aS'2602'
p5733
aS'2603'
p5734
aS'2608'
p5735
aS'2609'
p5736
aS'2541'
p5737
aS'2540'
p5738
aS'2546'
p5739
aS'2545'
p5740
aS'2544'
p5741
aS'2549'
p5742
aS'2769'
p5743
aS'2760'
p5744
aS'2615'
p5745
aS'2613'
p5746
aS'2611'
p5747
aS'2610'
p5748
aS'2618'
p5749
aS'2578'
p5750
aS'2576'
p5751
aS'2594'
p5752
aS'2595'
p5753
aS'2596'
p5754
aS'2590'
p5755
aS'2599'
p5756
aS'2623'
p5757
aS'2621'
p5758
aS'2627'
p5759
aS'2624'
p5760
aS'2628'
p5761
aS'2750'
p5762
aS'2759'
p5763
aS'2561'
p5764
aS'2562'
p5765
aS'2587'
p5766
aS'2586'
p5767
aS'2585'
p5768
aS'2584'
p5769
aS'2583'
p5770
aS'2589'
p5771
aS'2588'
p5772
aS'2638'
p5773
aS'2636'
p5774
aS'2631'
p5775
aS'2630'
p5776
aS'2648'
p5777
aS'2649'
p5778
aS'2640'
p5779
aS'2642'
p5780
aS'2651'
p5781
aS'2838'
p5782
aS'2837'
p5783
aS'2836'
p5784
aS'2808'
p5785
aS'2812'
p5786
aS'2819'
p5787
aa(lp5788
S'1004'
p5789
aS'1622'
p5790
aS'1754'
p5791
aS'1176'
p5792
aS'1170'
p5793
aS'1616'
p5794
aS'1145'
p5795
aS'909'
p5796
aS'1098'
p5797
aS'1158'
p5798
aS'816'
p5799
aS'1703'
p5800
aS'1705'
p5801
aS'826'
p5802
aS'790'
p5803
aS'1139'
p5804
aS'1137'
p5805
aS'1723'
p5806
aS'1104'
p5807
aS'1102'
p5808
aS'1101'
p5809
aS'1850'
p5810
aS'919'
p5811
aS'912'
p5812
aS'1739'
p5813
aS'1734'
p5814
aS'1032'
p5815
aS'1033'
p5816
aS'1031'
p5817
aS'1036'
p5818
aS'1034'
p5819
aS'602'
p5820
aS'1051'
p5821
aS'1058'
p5822
aS'1271'
p5823
aS'595'
p5824
aS'863'
p5825
aS'886'
p5826
aS'1045'
p5827
aS'1867'
p5828
aS'961'
p5829
aS'1072'
p5830
aS'956'
p5831
aS'1064'
p5832
aS'1086'
p5833
aS'1083'
p5834
aS'649'
p5835
aS'1026'
p5836
aS'946'
p5837
aS'992'
p5838
aS'999'
p5839
aS'572'
p5840
aS'1423'
p5841
aS'982'
p5842
aS'1796'
p5843
aS'1633'
p5844
aS'720'
p5845
aS'1745'
p5846
aS'1740'
p5847
aS'1161'
p5848
aS'2303'
p5849
aS'2302'
p5850
aS'2695'
p5851
aS'3031'
p5852
aS'3029'
p5853
aS'3006'
p5854
aS'2604'
p5855
aS'2600'
p5856
aS'2608'
p5857
aS'2768'
p5858
aS'2612'
p5859
aS'2618'
p5860
aS'2570'
p5861
aS'2623'
p5862
aS'2626'
p5863
aS'2627'
p5864
aS'2625'
p5865
aS'2629'
p5866
aS'2828'
p5867
aS'2633'
p5868
aS'2632'
p5869
aS'2644'
p5870
aS'2645'
p5871
aS'2822'
p5872
aS'2650'
p5873
aS'2656'
p5874
aS'2655'
p5875
aS'2660'
p5876
aa(lp5877
S'1132'
p5878
aS'1004'
p5879
aS'1199'
p5880
aS'1193'
p5881
aS'1176'
p5882
aS'1173'
p5883
aS'624'
p5884
aS'1219'
p5885
aS'1146'
p5886
aS'1148'
p5887
aS'1149'
p5888
aS'900'
p5889
aS'802'
p5890
aS'1158'
p5891
aS'1155'
p5892
aS'1154'
p5893
aS'1151'
p5894
aS'1150'
p5895
aS'1153'
p5896
aS'535'
p5897
aS'1128'
p5898
aS'1120'
p5899
aS'1122'
p5900
aS'1125'
p5901
aS'1126'
p5902
aS'1012'
p5903
aS'1137'
p5904
aS'1008'
p5905
aS'1220'
p5906
aS'1229'
p5907
aS'836'
p5908
aS'838'
p5909
aS'1038'
p5910
aS'637'
p5911
aS'1104'
p5912
aS'1100'
p5913
aS'750'
p5914
aS'1591'
p5915
aS'1025'
p5916
aS'1031'
p5917
aS'1022'
p5918
aS'1036'
p5919
aS'603'
p5920
aS'1205'
p5921
aS'1217'
p5922
aS'1118'
p5923
aS'902'
p5924
aS'857'
p5925
aS'858'
p5926
aS'859'
p5927
aS'743'
p5928
aS'1050'
p5929
aS'1054'
p5930
aS'1055'
p5931
aS'1056'
p5932
aS'716'
p5933
aS'1305'
p5934
aS'1309'
p5935
aS'888'
p5936
aS'1047'
p5937
aS'1266'
p5938
aS'1468'
p5939
aS'870'
p5940
aS'897'
p5941
aS'1096'
p5942
aS'1097'
p5943
aS'1099'
p5944
aS'1320'
p5945
aS'1262'
p5946
aS'1063'
p5947
aS'1062'
p5948
aS'1064'
p5949
aS'596'
p5950
aS'445'
p5951
aS'649'
p5952
aS'1026'
p5953
aS'943'
p5954
aS'89'
p5955
aS'587'
p5956
aS'1434'
p5957
aS'1260'
p5958
aS'992'
p5959
aS'999'
p5960
aS'582'
p5961
aS'988'
p5962
aS'982'
p5963
aS'981'
p5964
aS'1183'
p5965
aS'1164'
p5966
aS'1169'
p5967
aS'1568'
p5968
aS'1201'
p5969
aS'1990'
p5970
aS'1998'
p5971
aS'2057'
p5972
aS'2697'
p5973
aS'1968'
p5974
aS'1964'
p5975
aS'1965'
p5976
aS'1967'
p5977
aS'1819'
p5978
aS'1972'
p5979
aS'2995'
p5980
aS'2996'
p5981
aS'1948'
p5982
aS'1942'
p5983
aS'1947'
p5984
aS'1944'
p5985
aS'1945'
p5986
aS'2532'
p5987
aS'1950'
p5988
aS'1958'
p5989
aS'2884'
p5990
aS'2709'
p5991
aS'2702'
p5992
aS'2146'
p5993
aS'1928'
p5994
aS'2555'
p5995
aS'2558'
p5996
aS'2395'
p5997
aS'2393'
p5998
aS'1853'
p5999
aS'2606'
p6000
aS'2607'
p6001
aS'2601'
p6002
aS'2602'
p6003
aS'2603'
p6004
aS'1937'
p6005
aS'1934'
p6006
aS'2954'
p6007
aS'2762'
p6008
aS'2615'
p6009
aS'2614'
p6010
aS'2613'
p6011
aS'2577'
p6012
aS'2570'
p6013
aS'2596'
p6014
aS'2590'
p6015
aS'2591'
p6016
aS'2592'
p6017
aS'1873'
p6018
aS'1871'
p6019
aS'2623'
p6020
aS'2620'
p6021
aS'2626'
p6022
aS'2627'
p6023
aS'2624'
p6024
aS'2628'
p6025
aS'2561'
p6026
aS'2583'
p6027
aS'1867'
p6028
aS'1899'
p6029
aS'1891'
p6030
aS'1893'
p6031
aS'2644'
p6032
aS'1880'
p6033
aS'2653'
p6034
aS'2651'
p6035
aS'2650'
p6036
aS'2011'
p6037
aS'2661'
p6038
aS'2668'
p6039
aS'2930'
p6040
aS'2921'
p6041
aS'2925'
p6042
aS'1986'
p6043
aS'1989'
p6044
aa(lp6045
S'558'
p6046
aS'557'
p6047
aS'408'
p6048
aS'398'
p6049
aS'692'
p6050
aS'813'
p6051
aS'825'
p6052
aS'836'
p6053
aS'502'
p6054
aS'219'
p6055
aS'600'
p6056
aS'602'
p6057
aS'486'
p6058
aS'906'
p6059
aS'749'
p6060
aS'715'
p6061
aS'615'
p6062
aS'595'
p6063
aS'974'
p6064
aS'864'
p6065
aS'1040'
p6066
aS'764'
p6067
aS'473'
p6068
aS'136'
p6069
aS'135'
p6070
aS'457'
p6071
aS'127'
p6072
aS'582'
p6073
aS'1187'
p6074
aS'725'
p6075
aS'720'
p6076
aS'2873'
p6077
aS'2871'
p6078
aS'2877'
p6079
aS'2876'
p6080
aS'2875'
p6081
aS'2878'
p6082
aS'2738'
p6083
aS'3030'
p6084
aS'2851'
p6085
aS'2882'
p6086
aS'2883'
p6087
aS'2705'
p6088
aS'3005'
p6089
aS'2950'
p6090
aS'2952'
p6091
aS'3067'
p6092
aS'2948'
p6093
aS'2942'
p6094
aS'2594'
p6095
aS'2962'
p6096
aS'2968'
p6097
aS'3092'
p6098
aS'3093'
p6099
aS'3091'
p6100
aS'3089'
p6101
aS'3081'
p6102
aa(lp6103
S'298'
p6104
aS'276'
p6105
aS'277'
p6106
aS'1622'
p6107
aS'1620'
p6108
aS'1627'
p6109
aS'550'
p6110
aS'552'
p6111
aS'379'
p6112
aS'243'
p6113
aS'1144'
p6114
aS'251'
p6115
aS'817'
p6116
aS'423'
p6117
aS'529'
p6118
aS'1006'
p6119
aS'1228'
p6120
aS'1101'
p6121
aS'1739'
p6122
aS'1020'
p6123
aS'1217'
p6124
aS'483'
p6125
aS'1456'
p6126
aS'421'
p6127
aS'857'
p6128
aS'851'
p6129
aS'859'
p6130
aS'1050'
p6131
aS'1056'
p6132
aS'1058'
p6133
aS'619'
p6134
aS'182'
p6135
aS'860'
p6136
aS'888'
p6137
aS'312'
p6138
aS'1867'
p6139
aS'961'
p6140
aS'962'
p6141
aS'878'
p6142
aS'1676'
p6143
aS'1094'
p6144
aS'1095'
p6145
aS'697'
p6146
aS'520'
p6147
aS'1642'
p6148
aS'263'
p6149
aS'264'
p6150
aS'723'
p6151
aS'720'
p6152
aS'1161'
p6153
aS'1169'
p6154
aS'1201'
p6155
aS'2720'
p6156
aS'2710'
p6157
aS'2705'
p6158
aS'2788'
p6159
aa(lp6160
S'1385'
p6161
aS'364'
p6162
aS'1154'
p6163
aS'536'
p6164
aS'811'
p6165
aS'1124'
p6166
aS'529'
p6167
aS'1210'
p6168
aS'1458'
p6169
aS'846'
p6170
aS'1034'
p6171
aS'602'
p6172
aS'196'
p6173
aS'1051'
p6174
aS'1699'
p6175
aS'641'
p6176
aS'1097'
p6177
aS'1652'
p6178
aS'587'
p6179
aS'453'
p6180
aS'1996'
p6181
aS'1863'
p6182
aS'2839'
p6183
aS'2817'
p6184
aa(lp6185
S'1780'
p6186
aS'1758'
p6187
aS'1751'
p6188
aS'1750'
p6189
aS'1768'
p6190
aS'1763'
p6191
aS'1766'
p6192
aS'1765'
p6193
aS'698'
p6194
aS'541'
p6195
aS'1386'
p6196
aS'900'
p6197
aS'1819'
p6198
aS'801'
p6199
aS'811'
p6200
aS'814'
p6201
aS'1703'
p6202
aS'1392'
p6203
aS'1015'
p6204
aS'1234'
p6205
aS'1237'
p6206
aS'1697'
p6207
aS'790'
p6208
aS'1009'
p6209
aS'786'
p6210
aS'782'
p6211
aS'218'
p6212
aS'1856'
p6213
aS'1730'
p6214
aS'1734'
p6215
aS'1039'
p6216
aS'1031'
p6217
aS'1020'
p6218
aS'1036'
p6219
aS'1456'
p6220
aS'850'
p6221
aS'749'
p6222
aS'1271'
p6223
aS'1306'
p6224
aS'1301'
p6225
aS'863'
p6226
aS'886'
p6227
aS'775'
p6228
aS'1047'
p6229
aS'1261'
p6230
aS'1316'
p6231
aS'897'
p6232
aS'760'
p6233
aS'764'
p6234
aS'1320'
p6235
aS'1329'
p6236
aS'958'
p6237
aS'1882'
p6238
aS'1440'
p6239
aS'986'
p6240
aS'1637'
p6241
aS'1748'
p6242
aS'1747'
p6243
aS'1740'
p6244
aS'1743'
p6245
aS'1360'
p6246
aS'1711'
p6247
aS'793'
p6248
aS'2045'
p6249
aS'2040'
p6250
aS'2041'
p6251
aS'2049'
p6252
aS'2689'
p6253
aS'2686'
p6254
aS'2687'
p6255
aS'1992'
p6256
aS'2868'
p6257
aS'2869'
p6258
aS'2744'
p6259
aS'2030'
p6260
aS'2056'
p6261
aS'2059'
p6262
aS'2698'
p6263
aS'2696'
p6264
aS'2692'
p6265
aS'2691'
p6266
aS'1968'
p6267
aS'1960'
p6268
aS'1962'
p6269
aS'2876'
p6270
aS'2734'
p6271
aS'2736'
p6272
aS'2737'
p6273
aS'2738'
p6274
aS'2797'
p6275
aS'1971'
p6276
aS'2841'
p6277
aS'2995'
p6278
aS'2726'
p6279
aS'2725'
p6280
aS'2723'
p6281
aS'2728'
p6282
aS'1948'
p6283
aS'1949'
p6284
aS'1942'
p6285
aS'1943'
p6286
aS'1946'
p6287
aS'1945'
p6288
aS'2851'
p6289
aS'2850'
p6290
aS'3025'
p6291
aS'2080'
p6292
aS'2712'
p6293
aS'2713'
p6294
aS'2710'
p6295
aS'2711'
p6296
aS'2716'
p6297
aS'2717'
p6298
aS'2714'
p6299
aS'1957'
p6300
aS'1951'
p6301
aS'1950'
p6302
aS'1952'
p6303
aS'1958'
p6304
aS'2792'
p6305
aS'2793'
p6306
aS'2794'
p6307
aS'2881'
p6308
aS'2885'
p6309
aS'2094'
p6310
aS'2709'
p6311
aS'2708'
p6312
aS'2705'
p6313
aS'2704'
p6314
aS'2700'
p6315
aS'2703'
p6316
aS'2702'
p6317
aS'3004'
p6318
aS'3007'
p6319
aS'2893'
p6320
aS'2771'
p6321
aS'2773'
p6322
aS'2774'
p6323
aS'2603'
p6324
aS'2609'
p6325
aS'1931'
p6326
aS'2950'
p6327
aS'2768'
p6328
aS'2763'
p6329
aS'2766'
p6330
aS'2947'
p6331
aS'2942'
p6332
aS'2941'
p6333
aS'2940'
p6334
aS'2575'
p6335
aS'2598'
p6336
aS'2626'
p6337
aS'2625'
p6338
aS'2828'
p6339
aS'2029'
p6340
aS'2758'
p6341
aS'2829'
p6342
aS'2824'
p6343
aS'2756'
p6344
aS'2754'
p6345
aS'2755'
p6346
aS'2752'
p6347
aS'2751'
p6348
aS'2759'
p6349
aS'2569'
p6350
aS'2635'
p6351
aS'2637'
p6352
aS'2636'
p6353
aS'2740'
p6354
aS'2743'
p6355
aS'2034'
p6356
aS'2745'
p6357
aS'2032'
p6358
aS'2746'
p6359
aS'2749'
p6360
aS'2748'
p6361
aS'2038'
p6362
aS'2964'
p6363
aS'2648'
p6364
aS'2649'
p6365
aS'2641'
p6366
aS'2919'
p6367
aS'2826'
p6368
aS'2827'
p6369
aS'2820'
p6370
aS'2821'
p6371
aS'2823'
p6372
aS'2659'
p6373
aS'2658'
p6374
aS'2651'
p6375
aS'2650'
p6376
aS'2654'
p6377
aS'2839'
p6378
aS'2838'
p6379
aS'2836'
p6380
aS'2832'
p6381
aS'2959'
p6382
aS'2799'
p6383
aS'2063'
p6384
aS'2796'
p6385
aS'2667'
p6386
aS'2669'
p6387
aS'2937'
p6388
aS'2932'
p6389
aS'2930'
p6390
aS'2802'
p6391
aS'2806'
p6392
aS'2804'
p6393
aS'2805'
p6394
aS'2787'
p6395
aS'2780'
p6396
aS'2783'
p6397
aS'2782'
p6398
aS'2789'
p6399
aS'2079'
p6400
aS'2073'
p6401
aS'2671'
p6402
aS'2675'
p6403
aS'2678'
p6404
aS'2929'
p6405
aS'2922'
p6406
aS'1988'
p6407
aS'2815'
p6408
aS'2814'
p6409
aS'2817'
p6410
aS'2816'
p6411
aS'2813'
p6412
aS'2819'
p6413
aa(lp6414
S'1004'
p6415
aS'1198'
p6416
aS'1194'
p6417
aS'1197'
p6418
aS'1750'
p6419
aS'1177'
p6420
aS'1174'
p6421
aS'1173'
p6422
aS'1172'
p6423
aS'1171'
p6424
aS'1170'
p6425
aS'1286'
p6426
aS'1280'
p6427
aS'1288'
p6428
aS'1579'
p6429
aS'1378'
p6430
aS'1766'
p6431
aS'1144'
p6432
aS'1145'
p6433
aS'1149'
p6434
aS'544'
p6435
aS'1077'
p6436
aS'1600'
p6437
aS'1155'
p6438
aS'1154'
p6439
aS'1157'
p6440
aS'1151'
p6441
aS'810'
p6442
aS'813'
p6443
aS'816'
p6444
aS'1392'
p6445
aS'1120'
p6446
aS'1121'
p6447
aS'522'
p6448
aS'825'
p6449
aS'796'
p6450
aS'1138'
p6451
aS'1131'
p6452
aS'1130'
p6453
aS'1137'
p6454
aS'1136'
p6455
aS'1002'
p6456
aS'1001'
p6457
aS'1573'
p6458
aS'785'
p6459
aS'1035'
p6460
aS'638'
p6461
aS'1106'
p6462
aS'1104'
p6463
aS'1458'
p6464
aS'914'
p6465
aS'846'
p6466
aS'1024'
p6467
aS'1036'
p6468
aS'1205'
p6469
aS'1448'
p6470
aS'483'
p6471
aS'1051'
p6472
aS'1053'
p6473
aS'1055'
p6474
aS'1058'
p6475
aS'1059'
p6476
aS'1278'
p6477
aS'1270'
p6478
aS'615'
p6479
aS'869'
p6480
aS'867'
p6481
aS'1040'
p6482
aS'1047'
p6483
aS'1046'
p6484
aS'1261'
p6485
aS'1264'
p6486
aS'1011'
p6487
aS'631'
p6488
aS'872'
p6489
aS'870'
p6490
aS'871'
p6491
aS'1072'
p6492
aS'1096'
p6493
aS'303'
p6494
aS'1442'
p6495
aS'1063'
p6496
aS'1062'
p6497
aS'1086'
p6498
aS'1026'
p6499
aS'1882'
p6500
aS'322'
p6501
aS'1598'
p6502
aS'996'
p6503
aS'1835'
p6504
aS'572'
p6505
aS'1209'
p6506
aS'1518'
p6507
aS'1446'
p6508
aS'983'
p6509
aS'980'
p6510
aS'1183'
p6511
aS'1164'
p6512
aS'1161'
p6513
aS'1168'
p6514
aS'1169'
p6515
aS'2040'
p6516
aS'2688'
p6517
aS'2685'
p6518
aS'2301'
p6519
aS'2303'
p6520
aS'2698'
p6521
aS'2696'
p6522
aS'2877'
p6523
aS'2876'
p6524
aS'2791'
p6525
aS'2734'
p6526
aS'2737'
p6527
aS'2797'
p6528
aS'1779'
p6529
aS'2995'
p6530
aS'2993'
p6531
aS'1946'
p6532
aS'2711'
p6533
aS'2718'
p6534
aS'2150'
p6535
aS'2158'
p6536
aS'1952'
p6537
aS'2095'
p6538
aS'2094'
p6539
aS'2708'
p6540
aS'2705'
p6541
aS'2706'
p6542
aS'2701'
p6543
aS'2700'
p6544
aS'2702'
p6545
aS'2147'
p6546
aS'2146'
p6547
aS'2145'
p6548
aS'2148'
p6549
aS'3005'
p6550
aS'3007'
p6551
aS'3006'
p6552
aS'2550'
p6553
aS'2551'
p6554
aS'2552'
p6555
aS'2555'
p6556
aS'2559'
p6557
aS'2774'
p6558
aS'2776'
p6559
aS'2605'
p6560
aS'2607'
p6561
aS'2601'
p6562
aS'2602'
p6563
aS'1933'
p6564
aS'1931'
p6565
aS'1935'
p6566
aS'2542'
p6567
aS'2541'
p6568
aS'2546'
p6569
aS'2544'
p6570
aS'2764'
p6571
aS'2614'
p6572
aS'2612'
p6573
aS'2610'
p6574
aS'2618'
p6575
aS'2570'
p6576
aS'2594'
p6577
aS'2590'
p6578
aS'2591'
p6579
aS'2592'
p6580
aS'2119'
p6581
aS'2110'
p6582
aS'2111'
p6583
aS'2113'
p6584
aS'2623'
p6585
aS'2625'
p6586
aS'2758'
p6587
aS'2978'
p6588
aS'2561'
p6589
aS'2560'
p6590
aS'2566'
p6591
aS'2584'
p6592
aS'2103'
p6593
aS'2101'
p6594
aS'2100'
p6595
aS'2107'
p6596
aS'2106'
p6597
aS'2635'
p6598
aS'2740'
p6599
aS'2745'
p6600
aS'2747'
p6601
aS'1894'
p6602
aS'2138'
p6603
aS'2649'
p6604
aS'2658'
p6605
aS'2652'
p6606
aS'2651'
p6607
aS'2657'
p6608
aS'2662'
p6609
aS'2663'
p6610
aS'2661'
p6611
aS'2939'
p6612
aS'2802'
p6613
aS'2801'
p6614
aS'2786'
p6615
aS'2783'
p6616
aS'2671'
p6617
aS'2819'
p6618
aa(lp6619
S'1780'
p6620
aS'1004'
p6621
aS'1626'
p6622
aS'1759'
p6623
aS'1758'
p6624
aS'1750'
p6625
aS'1172'
p6626
aS'1178'
p6627
aS'1378'
p6628
aS'1219'
p6629
aS'172'
p6630
aS'1610'
p6631
aS'1768'
p6632
aS'1766'
p6633
aS'1765'
p6634
aS'1141'
p6635
aS'692'
p6636
aS'1386'
p6637
aS'1090'
p6638
aS'1819'
p6639
aS'1609'
p6640
aS'803'
p6641
aS'1154'
p6642
aS'1157'
p6643
aS'1152'
p6644
aS'535'
p6645
aS'228'
p6646
aS'1804'
p6647
aS'819'
p6648
aS'816'
p6649
aS'1702'
p6650
aS'1703'
p6651
aS'1705'
p6652
aS'1234'
p6653
aS'822'
p6654
aS'791'
p6655
aS'790'
p6656
aS'1001'
p6657
aS'1229'
p6658
aS'1588'
p6659
aS'1850'
p6660
aS'1856'
p6661
aS'914'
p6662
aS'843'
p6663
aS'1739'
p6664
aS'1738'
p6665
aS'1730'
p6666
aS'1737'
p6667
aS'1736'
p6668
aS'1039'
p6669
aS'750'
p6670
aS'1025'
p6671
aS'605'
p6672
aS'1118'
p6673
aS'1050'
p6674
aS'1052'
p6675
aS'1053'
p6676
aS'1054'
p6677
aS'1058'
p6678
aS'716'
p6679
aS'1271'
p6680
aS'615'
p6681
aS'1307'
p6682
aS'1301'
p6683
aS'1309'
p6684
aS'970'
p6685
aS'868'
p6686
aS'888'
p6687
aS'1047'
p6688
aS'1687'
p6689
aS'1261'
p6690
aS'875'
p6691
aS'1072'
p6692
aS'1099'
p6693
aS'1417'
p6694
aS'958'
p6695
aS'1063'
p6696
aS'1064'
p6697
aS'1087'
p6698
aS'1086'
p6699
aS'1406'
p6700
aS'1241'
p6701
aS'649'
p6702
aS'1026'
p6703
aS'1883'
p6704
aS'587'
p6705
aS'1749'
p6706
aS'729'
p6707
aS'1426'
p6708
aS'986'
p6709
aS'1639'
p6710
aS'1188'
p6711
aS'1748'
p6712
aS'720'
p6713
aS'1747'
p6714
aS'1740'
p6715
aS'1164'
p6716
aS'1166'
p6717
aS'1169'
p6718
aS'1368'
p6719
aS'2041'
p6720
aS'2688'
p6721
aS'2689'
p6722
aS'2685'
p6723
aS'2687'
p6724
aS'2681'
p6725
aS'1991'
p6726
aS'1990'
p6727
aS'1993'
p6728
aS'1992'
p6729
aS'1995'
p6730
aS'1997'
p6731
aS'1996'
p6732
aS'1999'
p6733
aS'2036'
p6734
aS'2057'
p6735
aS'2056'
p6736
aS'2059'
p6737
aS'2058'
p6738
aS'2699'
p6739
aS'2690'
p6740
aS'1969'
p6741
aS'1964'
p6742
aS'1966'
p6743
aS'1967'
p6744
aS'1963'
p6745
aS'2874'
p6746
aS'2730'
p6747
aS'1814'
p6748
aS'1979'
p6749
aS'1978'
p6750
aS'1977'
p6751
aS'2843'
p6752
aS'2841'
p6753
aS'2723'
p6754
aS'1948'
p6755
aS'1949'
p6756
aS'1943'
p6757
aS'1940'
p6758
aS'1941'
p6759
aS'1946'
p6760
aS'1947'
p6761
aS'1944'
p6762
aS'1945'
p6763
aS'2855'
p6764
aS'2088'
p6765
aS'2086'
p6766
aS'2085'
p6767
aS'2712'
p6768
aS'2715'
p6769
aS'1838'
p6770
aS'2152'
p6771
aS'1955'
p6772
aS'1957'
p6773
aS'1956'
p6774
aS'1951'
p6775
aS'1950'
p6776
aS'2880'
p6777
aS'2885'
p6778
aS'2097'
p6779
aS'2096'
p6780
aS'2093'
p6781
aS'2709'
p6782
aS'2706'
p6783
aS'2701'
p6784
aS'2703'
p6785
aS'1925'
p6786
aS'1926'
p6787
aS'1927'
p6788
aS'1929'
p6789
aS'3005'
p6790
aS'3004'
p6791
aS'2891'
p6792
aS'2395'
p6793
aS'2392'
p6794
aS'2393'
p6795
aS'2399'
p6796
aS'2778'
p6797
aS'1851'
p6798
aS'1852'
p6799
aS'1933'
p6800
aS'1932'
p6801
aS'1931'
p6802
aS'1930'
p6803
aS'1937'
p6804
aS'1936'
p6805
aS'1935'
p6806
aS'1939'
p6807
aS'1938'
p6808
aS'2955'
p6809
aS'2956'
p6810
aS'2957'
p6811
aS'2951'
p6812
aS'2952'
p6813
aS'2953'
p6814
aS'1842'
p6815
aS'1907'
p6816
aS'1905'
p6817
aS'1902'
p6818
aS'2949'
p6819
aS'2948'
p6820
aS'2947'
p6821
aS'2942'
p6822
aS'2940'
p6823
aS'1874'
p6824
aS'1873'
p6825
aS'1878'
p6826
aS'2110'
p6827
aS'2111'
p6828
aS'2112'
p6829
aS'2626'
p6830
aS'2627'
p6831
aS'2629'
p6832
aS'1913'
p6833
aS'2025'
p6834
aS'2027'
p6835
aS'2022'
p6836
aS'2028'
p6837
aS'2029'
p6838
aS'1866'
p6839
aS'1869'
p6840
aS'2104'
p6841
aS'2637'
p6842
aS'2032'
p6843
aS'2039'
p6844
aS'2038'
p6845
aS'2961'
p6846
aS'1899'
p6847
aS'1894'
p6848
aS'1896'
p6849
aS'1897'
p6850
aS'1890'
p6851
aS'1891'
p6852
aS'1892'
p6853
aS'1893'
p6854
aS'2648'
p6855
aS'2641'
p6856
aS'2643'
p6857
aS'2644'
p6858
aS'2000'
p6859
aS'2006'
p6860
aS'2007'
p6861
aS'2004'
p6862
aS'2005'
p6863
aS'2009'
p6864
aS'2911'
p6865
aS'3092'
p6866
aS'3090'
p6867
aS'1888'
p6868
aS'1886'
p6869
aS'1885'
p6870
aS'1881'
p6871
aS'2658'
p6872
aS'2653'
p6873
aS'2651'
p6874
aS'2019'
p6875
aS'2018'
p6876
aS'2011'
p6877
aS'2010'
p6878
aS'2013'
p6879
aS'2902'
p6880
aS'2909'
p6881
aS'2838'
p6882
aS'2833'
p6883
aS'3089'
p6884
aS'2959'
p6885
aS'2799'
p6886
aS'2061'
p6887
aS'2665'
p6888
aS'2669'
p6889
aS'2938'
p6890
aS'2939'
p6891
aS'2936'
p6892
aS'2932'
p6893
aS'2930'
p6894
aS'2931'
p6895
aS'2803'
p6896
aS'2078'
p6897
aS'2073'
p6898
aS'2072'
p6899
aS'2074'
p6900
aS'2677'
p6901
aS'2676'
p6902
aS'2679'
p6903
aS'2929'
p6904
aS'2928'
p6905
aS'2921'
p6906
aS'2920'
p6907
aS'2923'
p6908
aS'2922'
p6909
aS'2925'
p6910
aS'1986'
p6911
aS'1987'
p6912
aS'1981'
p6913
aS'1988'
p6914
aS'1989'
p6915
aS'2815'
p6916
aS'2810'
p6917
aa(lp6918
S'1193'
p6919
aS'1284'
p6920
aS'1148'
p6921
aS'698'
p6922
aS'1386'
p6923
aS'1153'
p6924
aS'1491'
p6925
aS'1015'
p6926
aS'231'
p6927
aS'1001'
p6928
aS'921'
p6929
aS'784'
p6930
aS'1722'
p6931
aS'1212'
p6932
aS'219'
p6933
aS'914'
p6934
aS'1031'
p6935
aS'634'
p6936
aS'907'
p6937
aS'1057'
p6938
aS'715'
p6939
aS'1474'
p6940
aS'1306'
p6941
aS'1302'
p6942
aS'775'
p6943
aS'1047'
p6944
aS'1045'
p6945
ag47
aS'876'
p6946
aS'870'
p6947
aS'1079'
p6948
aS'1676'
p6949
aS'1410'
p6950
aS'1402'
p6951
aS'1401'
p6952
aS'1244'
p6953
aS'1882'
p6954
aS'1453'
p6955
aS'82'
p6956
aS'1357'
p6957
aS'986'
p6958
aS'1748'
p6959
aS'1741'
p6960
aS'1561'
p6961
aS'1990'
p6962
aS'1993'
p6963
aS'1992'
p6964
aS'1996'
p6965
aS'1999'
p6966
aS'2055'
p6967
aS'2058'
p6968
aS'1968'
p6969
aS'1966'
p6970
aS'1961'
p6971
aS'1963'
p6972
aS'2877'
p6973
aS'2845'
p6974
aS'1949'
p6975
aS'1942'
p6976
aS'1943'
p6977
aS'1940'
p6978
aS'1946'
p6979
aS'1947'
p6980
aS'1944'
p6981
aS'2083'
p6982
aS'1955'
p6983
aS'1954'
p6984
aS'1957'
p6985
aS'1950'
p6986
aS'1953'
p6987
aS'1958'
p6988
aS'2881'
p6989
aS'2706'
p6990
aS'1926'
p6991
aS'1927'
p6992
aS'1928'
p6993
aS'1929'
p6994
aS'2896'
p6995
aS'2891'
p6996
aS'2892'
p6997
aS'2779'
p6998
aS'1859'
p6999
aS'1852'
p7000
aS'1854'
p7001
aS'1933'
p7002
aS'1932'
p7003
aS'1931'
p7004
aS'1930'
p7005
aS'1936'
p7006
aS'1935'
p7007
aS'1939'
p7008
aS'1908'
p7009
aS'1906'
p7010
aS'1904'
p7011
aS'1903'
p7012
aS'1900'
p7013
aS'1901'
p7014
aS'1877'
p7015
aS'1874'
p7016
aS'1875'
p7017
aS'1872'
p7018
aS'1873'
p7019
aS'1871'
p7020
aS'2621'
p7021
aS'1911'
p7022
aS'1910'
p7023
aS'1915'
p7024
aS'2298'
p7025
aS'1863'
p7026
aS'1865'
p7027
aS'1864'
p7028
aS'1867'
p7029
aS'1866'
p7030
aS'2746'
p7031
aS'2962'
p7032
aS'1898'
p7033
aS'1899'
p7034
aS'1894'
p7035
aS'1895'
p7036
aS'1896'
p7037
aS'1897'
p7038
aS'1890'
p7039
aS'1892'
p7040
aS'1893'
p7041
aS'2000'
p7042
aS'2006'
p7043
aS'1889'
p7044
aS'2796'
p7045
aS'1986'
p7046
aS'2817'
p7047
aa(lp7048
S'1620'
p7049
aS'1759'
p7050
aS'1171'
p7051
aS'1178'
p7052
aS'1346'
p7053
aS'1148'
p7054
aS'1543'
p7055
aS'1386'
p7056
aS'1383'
p7057
aS'1810'
p7058
aS'1158'
p7059
aS'1399'
p7060
aS'1129'
p7061
aS'1121'
p7062
aS'1237'
p7063
aS'1006'
p7064
aS'1570'
p7065
aS'1104'
p7066
aS'1100'
p7067
aS'1022'
p7068
aS'634'
p7069
aS'1119'
p7070
aS'1059'
p7071
aS'716'
p7072
aS'1271'
p7073
aS'868'
p7074
aS'888'
p7075
aS'1040'
p7076
aS'1048'
p7077
ag47
aS'1461'
p7078
aS'1520'
p7079
aS'870'
p7080
aS'1598'
p7081
aS'1209'
p7082
aS'1429'
p7083
aS'1182'
p7084
aS'1183'
p7085
aS'1164'
p7086
aS'1166'
p7087
aS'1169'
p7088
aS'1368'
p7089
aS'1999'
p7090
aS'2303'
p7091
aS'1941'
p7092
aS'2158'
p7093
aS'2159'
p7094
aS'2147'
p7095
aS'1937'
p7096
aS'1936'
p7097
aS'1877'
p7098
aa(lp7099
S'1754'
p7100
aS'1753'
p7101
aS'1751'
p7102
aS'1505'
p7103
aS'1768'
p7104
aS'1763'
p7105
aS'1542'
p7106
aS'1810'
p7107
aS'1818'
p7108
aS'1554'
p7109
aS'1805'
p7110
aS'1808'
p7111
aS'212'
p7112
aS'1730'
p7113
aS'1734'
p7114
aS'1737'
p7115
aS'1687'
p7116
ag47
aS'1791'
p7117
aS'1883'
p7118
aS'1745'
p7119
aS'1747'
p7120
aS'1740'
p7121
aS'1711'
p7122
aa(lp7123
a(lp7124
a(lp7125
a(lp7126
a(lp7127
a(lp7128
a(lp7129
a(lp7130
a(lp7131
a(lp7132
a(lp7133
a(lp7134
a(lp7135
a(lp7136
a(lp7137
a(lp7138
a(lp7139
a(lp7140
a(lp7141
a(lp7142
a(lp7143
a(lp7144
a(lp7145
a(lp7146
a(lp7147
a(lp7148
a(lp7149
a(lp7150
a(lp7151
a(lp7152
a(lp7153
a(lp7154
a(lp7155
a(lp7156
a(lp7157
a(lp7158
a(lp7159
a(lp7160
a(lp7161
a(lp7162
a(lp7163
a(lp7164
a(lp7165
a(lp7166
a(lp7167
a(lp7168
a(lp7169
a(lp7170
a(lp7171
a(lp7172
a(lp7173
a(lp7174
a(lp7175
a(lp7176
a(lp7177
a(lp7178
a(lp7179
a(lp7180
a(lp7181
a(lp7182
a(lp7183
a(lp7184
a(lp7185
a(lp7186
a(lp7187
a(lp7188
a(lp7189
a(lp7190
a(lp7191
a(lp7192
a(lp7193
a(lp7194
a(lp7195
a(lp7196
a(lp7197
a(lp7198
a(lp7199
a(lp7200
a(lp7201
a(lp7202
a(lp7203
a(lp7204
a(lp7205
a(lp7206
a(lp7207
a(lp7208
a(lp7209
a(lp7210
a(lp7211
a(lp7212
a(lp7213
a(lp7214
a(lp7215
a(lp7216
a(lp7217
a(lp7218
a(lp7219
a(lp7220
a(lp7221
a(lp7222
a(lp7223
a(lp7224
a(lp7225
a(lp7226
S'1854'
p7227
aa(lp7228
a(lp7229
a(lp7230
a(lp7231
a(lp7232
a(lp7233
a(lp7234
a(lp7235
a(lp7236
a(lp7237
a(lp7238
a(lp7239
a(lp7240
a(lp7241
a(lp7242
a(lp7243
a(lp7244
a(lp7245
a(lp7246
a(lp7247
S'1801'
p7248
aS'648'
p7249
aa(lp7250
a(lp7251
a(lp7252
a(lp7253
a(lp7254
a(lp7255
a(lp7256
a(lp7257
a(lp7258
a(lp7259
a(lp7260
a(lp7261
a(lp7262
a(lp7263
a(lp7264
a(lp7265
a(lp7266
a(lp7267
a(lp7268
S'1593'
p7269
aa(lp7270
a(lp7271
a(lp7272
a(lp7273
a(lp7274
a(lp7275
a(lp7276
a(lp7277
S'1795'
p7278
aa(lp7279
a(lp7280
a(lp7281
a(lp7282
a(lp7283
a(lp7284
S'1720'
p7285
aa(lp7286
a(lp7287
a(lp7288
a(lp7289
a(lp7290
a(lp7291
a(lp7292
a(lp7293
a(lp7294
a(lp7295
a(lp7296
a(lp7297
a(lp7298
a(lp7299
S'1705'
p7300
aa(lp7301
a(lp7302
a(lp7303
a(lp7304
a(lp7305
a(lp7306
a(lp7307
a(lp7308
a(lp7309
S'1417'
p7310
aa(lp7311
S'1775'
p7312
aS'1725'
p7313
aa(lp7314
S'666'
p7315
aS'1740'
p7316
aa(lp7317
a(lp7318
a(lp7319
a(lp7320
a(lp7321
a(lp7322
a(lp7323
a(lp7324
a(lp7325
a(lp7326
a(lp7327
a(lp7328
a(lp7329
a(lp7330
a(lp7331
a(lp7332
a(lp7333
a(lp7334
a(lp7335
a(lp7336
a(lp7337
a(lp7338
a(lp7339
a(lp7340
a(lp7341
a(lp7342
a(lp7343
a(lp7344
a(lp7345
a(lp7346
a(lp7347
a(lp7348
a(lp7349
a(lp7350
a(lp7351
a(lp7352
a(lp7353
a(lp7354
a(lp7355
a(lp7356
a(lp7357
a(lp7358
a(lp7359
a(lp7360
a(lp7361
a(lp7362
a(lp7363
a(lp7364
a(lp7365
a(lp7366
a(lp7367
a(lp7368
a(lp7369
a(lp7370
a(lp7371
a(lp7372
a(lp7373
a(lp7374
a(lp7375
a(lp7376
a(lp7377
a(lp7378
a(lp7379
a(lp7380
a(lp7381
a(lp7382
a(lp7383
a(lp7384
a(lp7385
a(lp7386
a(lp7387
a(lp7388
a(lp7389
a(lp7390
a(lp7391
a(lp7392
a(lp7393
a(lp7394
a(lp7395
a(lp7396
a(lp7397
a(lp7398
a(lp7399
a(lp7400
a(lp7401
a(lp7402
a(lp7403
a(lp7404
a(lp7405
a(lp7406
a(lp7407
a(lp7408
a(lp7409
a(lp7410
a(lp7411
a(lp7412
a(lp7413
a(lp7414
a(lp7415
a(lp7416
a(lp7417
a(lp7418
a(lp7419
a(lp7420
a(lp7421
a(lp7422
a(lp7423
a(lp7424
a(lp7425
a(lp7426
a(lp7427
a(lp7428
a(lp7429
a(lp7430
a(lp7431
a(lp7432
a(lp7433
a(lp7434
a(lp7435
a(lp7436
a(lp7437
a(lp7438
a(lp7439
a(lp7440
a(lp7441
a(lp7442
a(lp7443
a(lp7444
a(lp7445
a(lp7446
a(lp7447
a(lp7448
a(lp7449
a(lp7450
a(lp7451
a(lp7452
a(lp7453
a(lp7454
a(lp7455
a(lp7456
a(lp7457
a(lp7458
a(lp7459
a(lp7460
a(lp7461
a(lp7462
a(lp7463
a(lp7464
a(lp7465
a(lp7466
a(lp7467
a(lp7468
a(lp7469
a(lp7470
a(lp7471
a(lp7472
a(lp7473
a(lp7474
a(lp7475
a(lp7476
a(lp7477
a(lp7478
a(lp7479
a(lp7480
a(lp7481
a(lp7482
a(lp7483
a(lp7484
a(lp7485
a(lp7486
a(lp7487
a(lp7488
a(lp7489
a(lp7490
a(lp7491
a(lp7492
a(lp7493
a(lp7494
a(lp7495
a(lp7496
a(lp7497
a(lp7498
a(lp7499
a(lp7500
a(lp7501
a(lp7502
a(lp7503
a(lp7504
a(lp7505
a(lp7506
a(lp7507
a(lp7508
a(lp7509
a(lp7510
a(lp7511
a(lp7512
a(lp7513
a(lp7514
a(lp7515
a(lp7516
a(lp7517
a(lp7518
a(lp7519
a(lp7520
a(lp7521
a(lp7522
a(lp7523
a(lp7524
a(lp7525
a(lp7526
a(lp7527
a(lp7528
a(lp7529
a(lp7530
a(lp7531
a(lp7532
a(lp7533
a(lp7534
a(lp7535
a(lp7536
a(lp7537
a(lp7538
a(lp7539
a(lp7540
a(lp7541
a(lp7542
a(lp7543
a(lp7544
a(lp7545
a(lp7546
a(lp7547
a(lp7548
a(lp7549
a(lp7550
a(lp7551
a(lp7552
a(lp7553
a(lp7554
a(lp7555
a(lp7556
a(lp7557
a(lp7558
a(lp7559
a(lp7560
a(lp7561
a(lp7562
a(lp7563
a(lp7564
a(lp7565
a(lp7566
a(lp7567
a(lp7568
a(lp7569
a(lp7570
a(lp7571
a(lp7572
a(lp7573
a(lp7574
a(lp7575
a(lp7576
a(lp7577
a(lp7578
a(lp7579
a(lp7580
a(lp7581
a(lp7582
a(lp7583
a(lp7584
a(lp7585
a(lp7586
a(lp7587
a(lp7588
a(lp7589
a(lp7590
a(lp7591
a(lp7592
a(lp7593
a(lp7594
a(lp7595
a(lp7596
a(lp7597
a(lp7598
a(lp7599
a(lp7600
a(lp7601
a(lp7602
a(lp7603
a(lp7604
a(lp7605
a(lp7606
a(lp7607
a(lp7608
a(lp7609
a(lp7610
a(lp7611
a(lp7612
a(lp7613
a(lp7614
a(lp7615
a(lp7616
a(lp7617
a(lp7618
a(lp7619
a(lp7620
a(lp7621
a(lp7622
a(lp7623
a(lp7624
a(lp7625
a(lp7626
a(lp7627
a(lp7628
a(lp7629
a(lp7630
a(lp7631
a(lp7632
a(lp7633
a(lp7634
a(lp7635
a(lp7636
a(lp7637
a(lp7638
a(lp7639
a(lp7640
a(lp7641
a(lp7642
a(lp7643
a(lp7644
a(lp7645
a(lp7646
a(lp7647
a(lp7648
a(lp7649
a(lp7650
a(lp7651
a(lp7652
a(lp7653
a(lp7654
a(lp7655
a(lp7656
a(lp7657
a(lp7658
a(lp7659
a(lp7660
a(lp7661
a(lp7662
a(lp7663
a(lp7664
a(lp7665
a(lp7666
a(lp7667
a(lp7668
a(lp7669
a(lp7670
a(lp7671
a(lp7672
a(lp7673
a(lp7674
a(lp7675
a(lp7676
a(lp7677
a(lp7678
a(lp7679
a(lp7680
a(lp7681
a(lp7682
a(lp7683
a(lp7684
a(lp7685
a(lp7686
a(lp7687
a(lp7688
a(lp7689
a(lp7690
a(lp7691
a(lp7692
a(lp7693
a(lp7694
a(lp7695
a(lp7696
a(lp7697
a(lp7698
a(lp7699
a(lp7700
a(lp7701
a(lp7702
a(lp7703
a(lp7704
a(lp7705
a(lp7706
a(lp7707
a(lp7708
a(lp7709
a(lp7710
a(lp7711
a(lp7712
a(lp7713
a(lp7714
a(lp7715
a(lp7716
a(lp7717
a(lp7718
a(lp7719
a(lp7720
a(lp7721
a(lp7722
a(lp7723
a(lp7724
a(lp7725
a(lp7726
a(lp7727
a(lp7728
a(lp7729
a(lp7730
a(lp7731
a(lp7732
a(lp7733
a(lp7734
a(lp7735
a(lp7736
a(lp7737
a(lp7738
a(lp7739
a(lp7740
a(lp7741
a(lp7742
a(lp7743
a(lp7744
a(lp7745
a(lp7746
a(lp7747
a(lp7748
a(lp7749
a(lp7750
a(lp7751
a(lp7752
a(lp7753
a(lp7754
a(lp7755
a(lp7756
a(lp7757
a(lp7758
a(lp7759
a(lp7760
a(lp7761
a(lp7762
a(lp7763
a(lp7764
a(lp7765
a(lp7766
a(lp7767
a(lp7768
a(lp7769
a(lp7770
a(lp7771
a(lp7772
a(lp7773
a(lp7774
a(lp7775
a(lp7776
a(lp7777
a(lp7778
a(lp7779
a(lp7780
a(lp7781
a(lp7782
a(lp7783
a(lp7784
a(lp7785
a(lp7786
a(lp7787
a(lp7788
a(lp7789
a(lp7790
a(lp7791
a(lp7792
a(lp7793
a(lp7794
a(lp7795
a(lp7796
a(lp7797
a(lp7798
a(lp7799
a(lp7800
a(lp7801
a(lp7802
a(lp7803
a(lp7804
a(lp7805
a(lp7806
a(lp7807
a(lp7808
a(lp7809
a(lp7810
a(lp7811
a(lp7812
a(lp7813
a(lp7814
a(lp7815
a(lp7816
a(lp7817
a(lp7818
a(lp7819
a(lp7820
a(lp7821
a(lp7822
a(lp7823
a(lp7824
a(lp7825
a(lp7826
a(lp7827
a(lp7828
a(lp7829
a(lp7830
a(lp7831
a(lp7832
a(lp7833
a(lp7834
a(lp7835
a(lp7836
a(lp7837
a(lp7838
a(lp7839
a(lp7840
a(lp7841
a(lp7842
a(lp7843
a(lp7844
a(lp7845
a(lp7846
a(lp7847
a(lp7848
a(lp7849
S'242'
p7850
aa(lp7851
a(lp7852
S'568'
p7853
aa(lp7854
a(lp7855
a(lp7856
a(lp7857
a(lp7858
a(lp7859
a(lp7860
a(lp7861
a(lp7862
a(lp7863
a(lp7864
a(lp7865
a(lp7866
a(lp7867
a(lp7868
a(lp7869
a(lp7870
a(lp7871
a(lp7872
a(lp7873
a(lp7874
a(lp7875
a(lp7876
a(lp7877
a(lp7878
a(lp7879
a(lp7880
a(lp7881
a(lp7882
a(lp7883
a(lp7884
a(lp7885
a(lp7886
a(lp7887
a(lp7888
a(lp7889
a(lp7890
S'11'
p7891
aa(lp7892
a(lp7893
a(lp7894
a(lp7895
a(lp7896
a(lp7897
a(lp7898
a(lp7899
a(lp7900
a(lp7901
a(lp7902
a(lp7903
a(lp7904
a(lp7905
S'1677'
p7906
aa(lp7907
a(lp7908
a(lp7909
a(lp7910
S'1645'
p7911
aa(lp7912
S'980'
p7913
aa(lp7914
S'1836'
p7915
aa(lp7916
a(lp7917
a(lp7918
a(lp7919
S'1632'
p7920
aa(lp7921
a(lp7922
a(lp7923
S'1836'
p7924
aS'1716'
p7925
aS'1820'
p7926
aS'1695'
p7927
aa(lp7928
a(lp7929
S'1812'
p7930
aa(lp7931
S'1776'
p7932
aS'1824'
p7933
aS'1827'
p7934
aS'1631'
p7935
aa(lp7936
S'1758'
p7937
aS'1766'
p7938
aS'1554'
p7939
aS'1405'
p7940
aS'1882'
p7941
aS'1435'
p7942
aa(lp7943
S'1813'
p7944
aa(lp7945
S'1095'
p7946
aS'1790'
p7947
aa(lp7948
a(lp7949
S'1166'
p7950
aa(lp7951
a(lp7952
a(lp7953
S'1423'
p7954
aa(lp7955
a(lp7956
a(lp7957
S'1761'
p7958
aS'1112'
p7959
aa(lp7960
a(lp7961
S'1720'
p7962
aS'1580'
p7963
aS'441'
p7964
aa(lp7965
S'1806'
p7966
aS'1691'
p7967
aS'1847'
p7968
aS'1699'
p7969
aS'1677'
p7970
aa(lp7971
S'1623'
p7972
aS'1629'
p7973
aS'1610'
p7974
aS'1603'
p7975
aS'1804'
p7976
aS'1705'
p7977
aS'1590'
p7978
aS'1793'
p7979
aS'1440'
p7980
aa(lp7981
S'1603'
p7982
aS'1705'
p7983
aS'1596'
p7984
aS'1590'
p7985
aS'1207'
p7986
aS'860'
p7987
aS'1662'
p7988
aa(lp7989
a(lp7990
S'1629'
p7991
aS'1720'
p7992
aS'1678'
p7993
aS'1799'
p7994
aS'1771'
p7995
aS'1428'
p7996
aa(lp7997
S'1691'
p7998
aS'1716'
p7999
aS'1718'
p8000
aa(lp8001
S'1729'
p8002
aS'212'
p8003
aS'1305'
p8004
aS'336'
p8005
aa(lp8006
S'1611'
p8007
aa(lp8008
S'1375'
p8009
aS'1705'
p8010
aS'1707'
p8011
aS'1691'
p8012
aS'1581'
p8013
aS'1677'
p8014
aS'1771'
p8015
aS'1428'
p8016
aa(lp8017
S'1810'
p8018
aS'870'
p8019
aS'1792'
p8020
aa(lp8021
S'18'
p8022
aS'1723'
p8023
aS'1428'
p8024
aa(lp8025
a(lp8026
S'1350'
p8027
aa(lp8028
a(lp8029
S'1352'
p8030
aa(lp8031
a(lp8032
S'1222'
p8033
aS'1810'
p8034
aS'1396'
p8035
aS'1441'
p8036
aS'1452'
p8037
aS'1327'
p8038
aS'1439'
p8039
aS'1422'
p8040
aS'1425'
p8041
aa(lp8042
S'547'
p8043
aS'1410'
p8044
aS'1358'
p8045
aS'266'
p8046
aS'1714'
p8047
aa(lp8048
S'1554'
p8049
aS'826'
p8050
aS'600'
p8051
aS'1439'
p8052
aS'737'
p8053
aS'1350'
p8054
aS'568'
p8055
aS'1563'
p8056
aa(lp8057
a(lp8058
a(lp8059
S'1485'
p8060
aS'638'
p8061
aa(lp8062
S'1100'
p8063
aa(lp8064
S'628'
p8065
aa(lp8066
S'963'
p8067
aa(lp8068
S'888'
p8069
aa(lp8070
S'290'
p8071
aa(lp8072
S'527'
p8073
aS'1333'
p8074
aa(lp8075
S'539'
p8076
aa(lp8077
a(lp8078
S'1107'
p8079
aS'889'
p8080
aa(lp8081
S'1112'
p8082
ag47
aS'1319'
p8083
aS'1646'
p8084
aa(lp8085
S'243'
p8086
aa(lp8087
S'1007'
p8088
aS'1148'
p8089
aS'535'
p8090
aS'1012'
p8091
aS'791'
p8092
aS'869'
p8093
aS'1026'
p8094
aS'988'
p8095
aS'982'
p8096
aS'568'
p8097
aS'2532'
p8098
aS'2533'
p8099
aS'2534'
p8100
aS'2545'
p8101
aS'2579'
p8102
aS'2571'
p8103
aS'2561'
p8104
aS'2584'
p8105
aa(lp8106
S'1280'
p8107
aa(lp8108
a(lp8109
a(lp8110
a(lp8111
S'81'
p8112
aa(lp8113
S'446'
p8114
aS'329'
p8115
aS'114'
p8116
aa(lp8117
a(lp8118
a(lp8119
S'172'
p8120
aa(lp8121
a(lp8122
S'124'
p8123
aa(lp8124
a(lp8125
a(lp8126
a(lp8127
S'358'
p8128
aa(lp8129
a(lp8130
a(lp8131
a(lp8132
S'205'
p8133
aa(lp8134
a(lp8135
S'1374'
p8136
aS'937'
p8137
aS'1699'
p8138
aS'1539'
p8139
aS'1519'
p8140
aa(lp8141
S'1618'
p8142
aS'1491'
p8143
aS'1371'
p8144
aS'1036'
p8145
aS'75'
p8146
aS'1248'
p8147
aS'1535'
p8148
aS'1244'
p8149
aS'1435'
p8150
aS'1446'
p8151
aS'1364'
p8152
aS'1840'
p8153
aS'2594'
p8154
aS'2931'
p8155
aa(lp8156
S'1579'
p8157
aS'1603'
p8158
aS'1604'
p8159
aS'1153'
p8160
aS'1555'
p8161
aS'1124'
p8162
aS'1577'
p8163
aS'1582'
p8164
aS'1580'
p8165
aS'1581'
p8166
aS'1593'
p8167
aS'1473'
p8168
aS'1680'
p8169
aS'1462'
p8170
aS'1671'
p8171
aS'1994'
p8172
aa(lp8173
a(lp8174
S'1555'
p8175
aS'1804'
p8176
aS'1491'
p8177
aS'1583'
p8178
aS'1581'
p8179
aS'1206'
p8180
aS'1451'
p8181
aS'1462'
p8182
aS'1330'
p8183
aS'1535'
p8184
aS'1410'
p8185
aS'1348'
p8186
aS'1500'
p8187
aS'1355'
p8188
aS'1561'
p8189
aa(lp8190
S'1578'
p8191
aS'1372'
p8192
aS'1379'
p8193
aS'1610'
p8194
aS'1547'
p8195
aS'1813'
p8196
aS'1608'
p8197
aS'1398'
p8198
aS'1395'
p8199
aS'1391'
p8200
aS'1006'
p8201
aS'1577'
p8202
aS'1826'
p8203
aS'1720'
p8204
aS'1371'
p8205
aS'1589'
p8206
aS'1582'
p8207
aS'1580'
p8208
aS'1393'
p8209
aS'1590'
p8210
aS'1030'
p8211
aS'1206'
p8212
aS'1441'
p8213
aS'1699'
p8214
aS'1308'
p8215
aS'1460'
p8216
aS'1330'
p8217
aS'1417'
p8218
aS'1325'
p8219
aS'1669'
p8220
aS'1636'
p8221
aS'1561'
p8222
aS'2290'
p8223
aa(lp8224
S'1628'
p8225
aS'1578'
p8226
aS'1372'
p8227
aS'1379'
p8228
aS'1362'
p8229
aS'1491'
p8230
aS'1227'
p8231
aS'1590'
p8232
aS'1206'
p8233
aS'1449'
p8234
aS'1451'
p8235
aS'1477'
p8236
aS'1462'
p8237
aS'1671'
p8238
aS'1416'
p8239
aS'1402'
p8240
aS'1435'
p8241
aS'1344'
p8242
aS'1421'
p8243
aS'1359'
p8244
aS'1364'
p8245
aS'2289'
p8246
aS'2281'
p8247
aS'2284'
p8248
aS'2286'
p8249
aS'2293'
p8250
aS'2296'
p8251
aS'2294'
p8252
aa(lp8253
S'50'
p8254
aS'1395'
p8255
aS'1830'
p8256
aS'1459'
p8257
aS'1206'
p8258
aS'1113'
p8259
aS'956'
p8260
aS'1513'
p8261
aS'2293'
p8262
aS'2295'
p8263
aa(lp8264
S'1611'
p8265
aS'1717'
p8266
aS'1575'
p8267
aS'1206'
p8268
aS'1267'
p8269
aS'1410'
p8270
aS'1406'
p8271
aS'1336'
p8272
aS'1654'
p8273
aS'1344'
p8274
aS'1426'
p8275
aS'1357'
p8276
aS'1513'
p8277
aS'1364'
p8278
aS'2285'
p8279
aa(lp8280
S'1618'
p8281
aS'1612'
p8282
aS'1422'
p8283
aS'1560'
p8284
aa(lp8285
S'1281'
p8286
aS'1379'
p8287
aS'1145'
p8288
aS'423'
p8289
aS'639'
p8290
aS'1113'
p8291
aS'1473'
p8292
aS'1333'
p8293
aS'642'
p8294
aS'764'
p8295
aS'1327'
p8296
aS'956'
p8297
aS'1404'
p8298
aS'1026'
p8299
aS'998'
p8300
aS'1353'
p8301
aS'475'
p8302
aa(lp8303
S'1031'
p8304
aS'1441'
p8305
aS'903'
p8306
aS'595'
p8307
aS'312'
p8308
aS'648'
p8309
aS'266'
p8310
aa(lp8311
S'1462'
p8312
aa(lp8313
S'983'
p8314
aa(lp8315
S'50'
p8316
aa(lp8317
S'243'
p8318
aS'632'
p8319
aa(lp8320
S'1578'
p8321
aS'1002'
p8322
aS'863'
p8323
aS'1350'
p8324
aS'3093'
p8325
aa(lp8326
S'1112'
p8327
aa(lp8328
S'1213'
p8329
aS'903'
p8330
aS'1428'
p8331
aa(lp8332
S'1145'
p8333
aS'698'
p8334
aS'230'
p8335
aS'794'
p8336
aS'783'
p8337
aS'1036'
p8338
aS'1047'
p8339
aS'872'
p8340
aS'983'
p8341
aS'981'
p8342
aS'1181'
p8343
aS'1168'
p8344
aS'2689'
p8345
aS'2742'
p8346
aS'2744'
p8347
aS'2696'
p8348
aS'2849'
p8349
aS'2728'
p8350
aS'2851'
p8351
aS'2852'
p8352
aS'2710'
p8353
aS'2790'
p8354
aS'2701'
p8355
aS'2700'
p8356
aS'2703'
p8357
aS'2770'
p8358
aS'2604'
p8359
aS'2768'
p8360
aS'2758'
p8361
aS'2751'
p8362
aS'2569'
p8363
aS'2745'
p8364
aS'2832'
p8365
aS'2789'
p8366
aS'2814'
p8367
aS'2817'
p8368
aa(lp8369
a(lp8370
S'1576'
p8371
aS'1569'
p8372
aa(lp8373
S'272'
p8374
aS'654'
p8375
aS'365'
p8376
aS'800'
p8377
aS'235'
p8378
aS'826'
p8379
aS'790'
p8380
aS'628'
p8381
aS'849'
p8382
aS'903'
p8383
aS'1246'
p8384
aS'941'
p8385
aS'723'
p8386
aS'1360'
p8387
aS'2982'
p8388
aS'3092'
p8389
aa(lp8390
S'1812'
p8391
aa(lp8392
S'439'
p8393
aa(lp8394
S'240'
p8395
aS'238'
p8396
aS'195'
p8397
aS'314'
p8398
aS'336'
p8399
aa(lp8400
S'407'
p8401
aS'379'
p8402
aS'242'
p8403
aS'255'
p8404
aS'908'
p8405
aS'427'
p8406
aS'1006'
p8407
aS'450'
p8408
aS'851'
p8409
aS'323'
p8410
aS'722'
p8411
aS'729'
p8412
aS'286'
p8413
aS'723'
p8414
aa(lp8415
a(lp8416
S'18'
p8417
aS'1441'
p8418
aS'902'
p8419
aS'1798'
p8420
aS'1357'
p8421
aa(lp8422
S'298'
p8423
aS'1704'
p8424
aS'1323'
p8425
aS'648'
p8426
aS'1512'
p8427
aS'266'
p8428
aa(lp8429
S'1375'
p8430
aS'1761'
p8431
aS'511'
p8432
aS'1273'
p8433
aS'1646'
p8434
aS'567'
p8435
aa(lp8436
S'1107'
p8437
aS'847'
p8438
aS'841'
p8439
aS'903'
p8440
aS'674'
p8441
aS'981'
p8442
aS'724'
p8443
aa(lp8444
a(lp8445
a(lp8446
a(lp8447
a(lp8448
a(lp8449
a(lp8450
a(lp8451
a(lp8452
a(lp8453
a(lp8454
a(lp8455
a(lp8456
a(lp8457
a(lp8458
a(lp8459
a(lp8460
a(lp8461
a(lp8462
a(lp8463
a(lp8464
a(lp8465
a(lp8466
a(lp8467
a(lp8468
a(lp8469
a(lp8470
a(lp8471
a(lp8472
a(lp8473
a(lp8474
a(lp8475
a(lp8476
a(lp8477
a(lp8478
a(lp8479
a(lp8480
a(lp8481
a(lp8482
a(lp8483
a(lp8484
a(lp8485
a(lp8486
a(lp8487
a(lp8488
a(lp8489
a(lp8490
a(lp8491
a(lp8492
a(lp8493
a(lp8494
a(lp8495
a(lp8496
a(lp8497
a(lp8498
a(lp8499
a(lp8500
a(lp8501
a(lp8502
a(lp8503
a(lp8504
a(lp8505
a(lp8506
a(lp8507
a(lp8508
a(lp8509
a(lp8510
a(lp8511
a(lp8512
a(lp8513
a(lp8514
a(lp8515
a(lp8516
a(lp8517
a(lp8518
a(lp8519
a(lp8520
a(lp8521
a(lp8522
a(lp8523
a(lp8524
a(lp8525
a(lp8526
a(lp8527
a(lp8528
a(lp8529
a(lp8530
a(lp8531
a(lp8532
a(lp8533
a(lp8534
a(lp8535
a(lp8536
a(lp8537
a(lp8538
a(lp8539
a(lp8540
a(lp8541
a(lp8542
a(lp8543
a(lp8544
a(lp8545
a(lp8546
a(lp8547
a(lp8548
a(lp8549
a(lp8550
a(lp8551
a(lp8552
a(lp8553
a(lp8554
a(lp8555
a(lp8556
a(lp8557
a(lp8558
a(lp8559
a(lp8560
a(lp8561
a(lp8562
a(lp8563
a(lp8564
a(lp8565
a(lp8566
a(lp8567
a(lp8568
a(lp8569
S'383'
p8570
aa(lp8571
a(lp8572
S'185'
p8573
aa(lp8574
a(lp8575
a(lp8576
a(lp8577
a(lp8578
a(lp8579
a(lp8580
a(lp8581
S'419'
p8582
aa(lp8583
a(lp8584
a(lp8585
a(lp8586
a(lp8587
a(lp8588
a(lp8589
a(lp8590
a(lp8591
a(lp8592
a(lp8593
a(lp8594
a(lp8595
a(lp8596
a(lp8597
a(lp8598
a(lp8599
a(lp8600
a(lp8601
a(lp8602
a(lp8603
a(lp8604
a(lp8605
a(lp8606
a(lp8607
a(lp8608
a(lp8609
a(lp8610
a(lp8611
a(lp8612
a(lp8613
a(lp8614
a(lp8615
a(lp8616
a(lp8617
a(lp8618
a(lp8619
a(lp8620
a(lp8621
a(lp8622
a(lp8623
a(lp8624
S'1720'
p8625
aa(lp8626
a(lp8627
S'1740'
p8628
aa(lp8629
S'1510'
p8630
aa(lp8631
S'1590'
p8632
aa(lp8633
S'1662'
p8634
aa(lp8635
S'1678'
p8636
aS'1790'
p8637
aa(lp8638
a(lp8639
a(lp8640
S'507'
p8641
aa(lp8642
S'1512'
p8643
aa(lp8644
a(lp8645
S'1282'
p8646
aS'1120'
p8647
aS'1410'
p8648
aa(lp8649
S'1751'
p8650
aS'1761'
p8651
aS'790'
p8652
aS'1850'
p8653
aS'774'
p8654
aa(lp8655
S'1810'
p8656
aS'1333'
p8657
aa(lp8658
a(lp8659
S'1700'
p8660
aa(lp8661
S'1383'
p8662
aS'1441'
p8663
aS'1847'
p8664
aS'1793'
p8665
aa(lp8666
S'1596'
p8667
aS'1636'
p8668
aS'1637'
p8669
aa(lp8670
S'1624'
p8671
aS'1629'
p8672
aS'1817'
p8673
aS'1705'
p8674
aS'1581'
p8675
aS'1596'
p8676
aa(lp8677
S'1542'
p8678
aS'548'
p8679
aS'1573'
p8680
aS'1827'
p8681
aS'1593'
p8682
aa(lp8683
S'1611'
p8684
aS'1609'
p8685
aS'1304'
p8686
aS'956'
p8687
aa(lp8688
S'1193'
p8689
aS'1751'
p8690
aS'1618'
p8691
aS'1766'
p8692
aS'1600'
p8693
aS'1136'
p8694
aS'1520'
p8695
aS'1423'
p8696
aa(lp8697
a(lp8698
a(lp8699
a(lp8700
a(lp8701
a(lp8702
a(lp8703
a(lp8704
a(lp8705
a(lp8706
a(lp8707
a(lp8708
a(lp8709
a(lp8710
a(lp8711
a(lp8712
a(lp8713
a(lp8714
a(lp8715
a(lp8716
a(lp8717
a(lp8718
a(lp8719
a(lp8720
a(lp8721
a(lp8722
a(lp8723
a(lp8724
a(lp8725
a(lp8726
a(lp8727
a(lp8728
a(lp8729
a(lp8730
a(lp8731
a(lp8732
a(lp8733
a(lp8734
a(lp8735
a(lp8736
a(lp8737
a(lp8738
a(lp8739
a(lp8740
a(lp8741
a(lp8742
a(lp8743
a(lp8744
a(lp8745
a(lp8746
a(lp8747
a(lp8748
a(lp8749
a(lp8750
a(lp8751
a(lp8752
a(lp8753
a(lp8754
a(lp8755
a(lp8756
a(lp8757
a(lp8758
a(lp8759
a(lp8760
a(lp8761
a(lp8762
a(lp8763
a(lp8764
a(lp8765
a(lp8766
a(lp8767
a(lp8768
a(lp8769
a(lp8770
a(lp8771
a(lp8772
a(lp8773
a(lp8774
a(lp8775
a(lp8776
a(lp8777
a(lp8778
a(lp8779
a(lp8780
a(lp8781
a(lp8782
a(lp8783
a(lp8784
a(lp8785
a(lp8786
a(lp8787
a(lp8788
a(lp8789
a(lp8790
a(lp8791
a(lp8792
a(lp8793
a(lp8794
a(lp8795
a(lp8796
a(lp8797
a(lp8798
a(lp8799
a(lp8800
a(lp8801
a(lp8802
a(lp8803
a(lp8804
a(lp8805
a(lp8806
a(lp8807
a(lp8808
a(lp8809
a(lp8810
a(lp8811
a(lp8812
a(lp8813
a(lp8814
a(lp8815
a(lp8816
a(lp8817
a(lp8818
a(lp8819
a(lp8820
a(lp8821
a(lp8822
a(lp8823
a(lp8824
a(lp8825
a(lp8826
a(lp8827
a(lp8828
a(lp8829
a(lp8830
a(lp8831
a(lp8832
a(lp8833
a(lp8834
a(lp8835
a(lp8836
a(lp8837
a(lp8838
a(lp8839
a(lp8840
a(lp8841
a(lp8842
a(lp8843
a(lp8844
a(lp8845
a(lp8846
a(lp8847
a(lp8848
a(lp8849
a(lp8850
a(lp8851
a(lp8852
a(lp8853
a(lp8854
a(lp8855
a(lp8856
a(lp8857
a(lp8858
a(lp8859
a(lp8860
a(lp8861
a(lp8862
a(lp8863
S'1867'
p8864
aa(lp8865
a(lp8866
a(lp8867
a(lp8868
a(lp8869
a(lp8870
a(lp8871
a(lp8872
a(lp8873
a(lp8874
a(lp8875
a(lp8876
a(lp8877
a(lp8878
a(lp8879
a(lp8880
a(lp8881
a(lp8882
a(lp8883
a(lp8884
a(lp8885
a(lp8886
a(lp8887
a(lp8888
a(lp8889
a(lp8890
a(lp8891
a(lp8892
a(lp8893
a(lp8894
a(lp8895
a(lp8896
a(lp8897
a(lp8898
a(lp8899
a(lp8900
a(lp8901
S'1884'
p8902
aa(lp8903
a(lp8904
S'1876'
p8905
aa(lp8906
a(lp8907
S'1743'
p8908
aa(lp8909
a(lp8910
a(lp8911
a(lp8912
a(lp8913
a(lp8914
a(lp8915
a(lp8916
a(lp8917
a(lp8918
S'1875'
p8919
aa(lp8920
a(lp8921
a(lp8922
a(lp8923
a(lp8924
a(lp8925
a(lp8926
a(lp8927
a(lp8928
a(lp8929
a(lp8930
a(lp8931
a(lp8932
a(lp8933
a(lp8934
a(lp8935
a(lp8936
a(lp8937
S'1805'
p8938
aa(lp8939
S'1615'
p8940
aS'1823'
p8941
aS'1884'
p8942
aa(lp8943
S'1158'
p8944
aS'1808'
p8945
aS'1834'
p8946
aS'1838'
p8947
aS'1842'
p8948
aS'1860'
p8949
aa(lp8950
S'1877'
p8951
aa(lp8952
a(lp8953
a(lp8954
a(lp8955
a(lp8956
S'548'
p8957
aS'1858'
p8958
aa(lp8959
S'1875'
p8960
aa(lp8961
a(lp8962
S'1735'
p8963
aa(lp8964
a(lp8965
a(lp8966
a(lp8967
a(lp8968
a(lp8969
a(lp8970
a(lp8971
a(lp8972
a(lp8973
a(lp8974
a(lp8975
a(lp8976
a(lp8977
a(lp8978
a(lp8979
a(lp8980
a(lp8981
a(lp8982
a(lp8983
S'1884'
p8984
aa(lp8985
S'1879'
p8986
aS'1651'
p8987
aa(lp8988
S'1284'
p8989
aS'1557'
p8990
aS'1869'
p8991
aa(lp8992
S'1810'
p8993
aS'1882'
p8994
aa(lp8995
a(lp8996
a(lp8997
a(lp8998
S'1879'
p8999
aa(lp9000
S'1875'
p9001
aa(lp9002
a(lp9003
S'1615'
p9004
aa(lp9005
S'1875'
p9006
aa(lp9007
a(lp9008
S'1787'
p9009
aa(lp9010
S'1822'
p9011
aa(lp9012
a(lp9013
a(lp9014
a(lp9015
a(lp9016
S'1748'
p9017
aa(lp9018
a(lp9019
a(lp9020
a(lp9021
a(lp9022
a(lp9023
a(lp9024
a(lp9025
a(lp9026
S'1701'
p9027
aa(lp9028
S'1012'
p9029
aa(lp9030
S'1823'
p9031
aa(lp9032
S'1878'
p9033
aS'1788'
p9034
aa(lp9035
S'1617'
p9036
aS'1787'
p9037
aS'1701'
p9038
aS'1863'
p9039
aS'1747'
p9040
aa(lp9041
S'1621'
p9042
aS'1788'
p9043
aS'1679'
p9044
aS'1884'
p9045
aS'1880'
p9046
aa(lp9047
S'1679'
p9048
aS'1884'
p9049
aa(lp9050
S'1858'
p9051
aS'1736'
p9052
aa(lp9053
a(lp9054
S'1804'
p9055
aa(lp9056
a(lp9057
a(lp9058
a(lp9059
S'1838'
p9060
aS'1842'
p9061
aS'1876'
p9062
aa(lp9063
a(lp9064
a(lp9065
S'1875'
p9066
aa(lp9067
a(lp9068
a(lp9069
a(lp9070
a(lp9071
a(lp9072
a(lp9073
a(lp9074
a(lp9075
S'1759'
p9076
aS'1766'
p9077
aS'1801'
p9078
aS'1701'
p9079
aS'1854'
p9080
aS'1856'
p9081
aS'1791'
p9082
aS'1749'
p9083
aS'1748'
p9084
aa(lp9085
a(lp9086
a(lp9087
S'1723'
p9088
aa(lp9089
a(lp9090
a(lp9091
a(lp9092
a(lp9093
S'1745'
p9094
aS'1747'
p9095
aa(lp9096
a(lp9097
S'624'
p9098
aa(lp9099
a(lp9100
a(lp9101
a(lp9102
a(lp9103
a(lp9104
a(lp9105
S'1875'
p9106
aa(lp9107
a(lp9108
a(lp9109
a(lp9110
a(lp9111
S'1458'
p9112
aS'1313'
p9113
aS'1333'
p9114
aS'1323'
p9115
aS'1423'
p9116
aa(lp9117
S'1830'
p9118
aS'1697'
p9119
aS'1823'
p9120
aa(lp9121
S'1845'
p9122
aS'1868'
p9123
aa(lp9124
S'1818'
p9125
aS'1716'
p9126
aS'1599'
p9127
aS'1735'
p9128
aa(lp9129
S'1875'
p9130
aa(lp9131
a(lp9132
S'1871'
p9133
aa(lp9134
S'1284'
p9135
aS'1875'
p9136
aa(lp9137
a(lp9138
a(lp9139
S'1875'
p9140
aS'1870'
p9141
aa(lp9142
a(lp9143
S'420'
p9144
aa(lp9145
a(lp9146
S'1848'
p9147
aa(lp9148
S'1739'
p9149
aa(lp9150
a(lp9151
S'1817'
p9152
aS'1823'
p9153
aa(lp9154
S'1767'
p9155
aS'1804'
p9156
aS'1858'
p9157
aa(lp9158
S'1608'
p9159
aS'1455'
p9160
aS'1469'
p9161
aS'1313'
p9162
aS'1312'
p9163
aS'1349'
p9164
aa(lp9165
S'1542'
p9166
aS'1878'
p9167
aS'1879'
p9168
aa(lp9169
S'1810'
p9170
aS'1644'
p9171
aa(lp9172
S'1854'
p9173
aS'1051'
p9174
aa(lp9175
a(lp9176
a(lp9177
a(lp9178
S'240'
p9179
aS'229'
p9180
aS'228'
p9181
aS'212'
p9182
aS'195'
p9183
aa(lp9184
S'852'
p9185
aa(lp9186
a(lp9187
S'1784'
p9188
aS'1855'
p9189
aS'1848'
p9190
aS'1868'
p9191
aa(lp9192
S'1875'
p9193
aa(lp9194
S'540'
p9195
aS'531'
p9196
aa(lp9197
a(lp9198
a(lp9199
a(lp9200
S'1767'
p9201
aS'1383'
p9202
aS'1805'
p9203
aS'1838'
p9204
aa(lp9205
S'1758'
p9206
aS'684'
p9207
aS'1766'
p9208
aS'1850'
p9209
aS'1856'
p9210
aS'1738'
p9211
aS'1736'
p9212
aS'568'
p9213
aa(lp9214
S'548'
p9215
aS'1858'
p9216
aS'1844'
p9217
aS'1862'
p9218
aS'1735'
p9219
aa(lp9220
S'1617'
p9221
aS'1615'
p9222
aS'1855'
p9223
aS'1788'
p9224
aa(lp9225
S'1759'
p9226
aS'1767'
p9227
aS'1856'
p9228
aS'1861'
p9229
aS'1796'
p9230
aS'1747'
p9231
aa(lp9232
S'1766'
p9233
aS'1696'
p9234
aS'770'
p9235
aS'1680'
p9236
aS'1860'
p9237
aS'1747'
p9238
aa(lp9239
a(lp9240
S'1750'
p9241
aS'1386'
p9242
aS'1426'
p9243
aa(lp9244
a(lp9245
a(lp9246
a(lp9247
a(lp9248
a(lp9249
a(lp9250
a(lp9251
a(lp9252
a(lp9253
a(lp9254
a(lp9255
a(lp9256
a(lp9257
a(lp9258
a(lp9259
a(lp9260
a(lp9261
a(lp9262
a(lp9263
a(lp9264
a(lp9265
a(lp9266
a(lp9267
a(lp9268
a(lp9269
a(lp9270
a(lp9271
a(lp9272
a(lp9273
a(lp9274
a(lp9275
a(lp9276
a(lp9277
a(lp9278
a(lp9279
a(lp9280
a(lp9281
a(lp9282
a(lp9283
a(lp9284
a(lp9285
a(lp9286
a(lp9287
a(lp9288
a(lp9289
a(lp9290
a(lp9291
a(lp9292
a(lp9293
a(lp9294
a(lp9295
a(lp9296
a(lp9297
a(lp9298
a(lp9299
a(lp9300
a(lp9301
a(lp9302
a(lp9303
a(lp9304
a(lp9305
a(lp9306
a(lp9307
a(lp9308
a(lp9309
a(lp9310
a(lp9311
a(lp9312
a(lp9313
a(lp9314
a(lp9315
a(lp9316
a(lp9317
a(lp9318
S'355'
p9319
aa(lp9320
S'20'
p9321
aS'79'
p9322
ag47
aa(lp9323
S'241'
p9324
aa(lp9325
a(lp9326
S'408'
p9327
aS'386'
p9328
aS'535'
p9329
aS'1012'
p9330
aS'981'
p9331
aa(lp9332
S'466'
p9333
aS'714'
p9334
aa(lp9335
S'107'
p9336
aS'216'
p9337
aS'214'
p9338
aS'450'
p9339
aS'420'
p9340
aS'1095'
p9341
aS'134'
p9342
aS'326'
p9343
aa(lp9344
S'291'
p9345
aS'375'
p9346
aS'544'
p9347
aS'75'
p9348
ag47
aa(lp9349
S'417'
p9350
aS'431'
p9351
aS'642'
p9352
aa(lp9353
S'107'
p9354
aS'167'
p9355
aS'55'
p9356
aS'155'
p9357
aS'140'
p9358
aS'64'
p9359
aS'180'
p9360
ag47
aS'872'
p9361
aS'719'
p9362
aS'130'
p9363
aS'116'
p9364
aS'111'
p9365
aS'566'
p9366
aa(lp9367
S'540'
p9368
aS'410'
p9369
aS'1158'
p9370
aS'435'
p9371
aS'1130'
p9372
aS'1720'
p9373
aS'850'
p9374
aS'490'
p9375
aS'441'
p9376
aS'577'
p9377
aS'462'
p9378
aS'2730'
p9379
aS'2720'
p9380
aS'2754'
p9381
aS'2781'
p9382
aa(lp9383
S'698'
p9384
aS'410'
p9385
aS'404'
p9386
aS'600'
p9387
aS'958'
p9388
aS'707'
p9389
aS'120'
p9390
aS'2718'
p9391
aa(lp9392
S'1285'
p9393
aS'1379'
p9394
aS'1141'
p9395
aS'1148'
p9396
aS'1158'
p9397
aS'1157'
p9398
aS'1150'
p9399
aS'1250'
p9400
aS'1232'
p9401
aS'1239'
p9402
aS'828'
p9403
aS'790'
p9404
aS'1001'
p9405
aS'1106'
p9406
aS'1459'
p9407
aS'1393'
p9408
aS'1206'
p9409
aS'1447'
p9410
aS'1113'
p9411
aS'1112'
p9412
aS'1114'
p9413
aS'1058'
p9414
aS'1303'
p9415
aS'869'
p9416
aS'72'
p9417
aS'1269'
p9418
aS'1266'
p9419
aS'1246'
p9420
aS'1072'
p9421
aS'1413'
p9422
aS'1263'
p9423
aS'1086'
p9424
aS'1406'
p9425
aS'1335'
p9426
aS'1437'
p9427
aS'1260'
p9428
aS'1344'
p9429
aS'1292'
p9430
aS'1425'
p9431
aS'1358'
p9432
aS'1351'
p9433
aS'266'
p9434
aS'1364'
p9435
aS'2268'
p9436
aS'2262'
p9437
aS'2260'
p9438
aS'2271'
p9439
aS'2270'
p9440
aS'2273'
p9441
aS'2272'
p9442
aS'2209'
p9443
aS'2189'
p9444
aS'2217'
p9445
aS'2214'
p9446
aS'2219'
p9447
aS'2218'
p9448
aS'2239'
p9449
aS'2238'
p9450
aS'2230'
p9451
aS'2233'
p9452
aS'2235'
p9453
aS'2236'
p9454
aS'2297'
p9455
aS'2294'
p9456
aS'2248'
p9457
aS'2249'
p9458
aS'2245'
p9459
aS'2242'
p9460
aS'2243'
p9461
aS'2257'
p9462
aa(lp9463
S'1772'
p9464
aS'1779'
p9465
aS'1804'
p9466
aS'837'
p9467
aS'911'
p9468
aS'847'
p9469
aS'1869'
p9470
aS'582'
p9471
aS'728'
p9472
aa(lp9473
a(lp9474
S'847'
p9475
aa(lp9476
S'1038'
p9477
aS'1304'
p9478
aa(lp9479
S'837'
p9480
aS'1095'
p9481
aa(lp9482
S'1145'
p9483
aS'1385'
p9484
aS'1154'
p9485
aS'1139'
p9486
aS'486'
p9487
aS'664'
p9488
aS'1292'
p9489
aS'578'
p9490
aS'1181'
p9491
aS'720'
p9492
aS'2847'
p9493
aS'2779'
p9494
aS'2784'
p9495
aS'2815'
p9496
aS'2814'
p9497
aa(lp9498
S'526'
p9499
aS'1013'
p9500
aS'1001'
p9501
aS'1113'
p9502
aS'865'
p9503
aS'867'
p9504
aS'1096'
p9505
aS'1443'
p9506
aS'649'
p9507
aS'1436'
p9508
aS'1340'
p9509
aS'997'
p9510
aS'1423'
p9511
aS'1426'
p9512
aS'567'
p9513
aS'2818'
p9514
aa(lp9515
S'1132'
p9516
aS'1170'
p9517
aS'624'
p9518
aS'1145'
p9519
aS'1084'
p9520
aS'1155'
p9521
aS'1156'
p9522
aS'1153'
p9523
aS'1398'
p9524
aS'1800'
p9525
aS'816'
p9526
aS'1232'
p9527
aS'1137'
p9528
aS'1205'
p9529
aS'1112'
p9530
aS'1114'
p9531
aS'1058'
p9532
aS'1046'
p9533
aS'1045'
p9534
aS'1266'
p9535
aS'870'
p9536
aS'1246'
p9537
aS'1415'
p9538
aS'1060'
p9539
aS'1245'
p9540
aS'1506'
p9541
aS'729'
p9542
aS'983'
p9543
aS'2262'
p9544
aS'2264'
p9545
aS'2213'
p9546
aS'2226'
p9547
aS'2238'
p9548
aS'2230'
p9549
aS'2232'
p9550
aS'2235'
p9551
aS'2548'
p9552
aS'2280'
p9553
aS'2283'
p9554
aS'2284'
p9555
aS'2293'
p9556
aS'2291'
p9557
aS'2297'
p9558
aS'2294'
p9559
aS'2565'
p9560
aS'2129'
p9561
aS'2248'
p9562
aS'2245'
p9563
aS'2240'
p9564
aS'2255'
p9565
aS'2253'
p9566
aS'2252'
p9567
aS'2251'
p9568
aa(lp9569
S'1284'
p9570
aS'1760'
p9571
aS'1035'
p9572
aS'1040'
p9573
aS'678'
p9574
aa(lp9575
a(lp9576
a(lp9577
a(lp9578
a(lp9579
a(lp9580
a(lp9581
a(lp9582
a(lp9583
a(lp9584
a(lp9585
a(lp9586
a(lp9587
a(lp9588
a(lp9589
a(lp9590
a(lp9591
a(lp9592
a(lp9593
a(lp9594
a(lp9595
a(lp9596
a(lp9597
a(lp9598
a(lp9599
a(lp9600
a(lp9601
a(lp9602
a(lp9603
a(lp9604
a(lp9605
a(lp9606
a(lp9607
a(lp9608
a(lp9609
a(lp9610
a(lp9611
a(lp9612
a(lp9613
a(lp9614
a(lp9615
a(lp9616
a(lp9617
a(lp9618
a(lp9619
a(lp9620
a(lp9621
a(lp9622
a(lp9623
a(lp9624
a(lp9625
a(lp9626
a(lp9627
a(lp9628
a(lp9629
a(lp9630
a(lp9631
a(lp9632
a(lp9633
a(lp9634
a(lp9635
a(lp9636
a(lp9637
a(lp9638
a(lp9639
a(lp9640
a(lp9641
a(lp9642
a(lp9643
a(lp9644
a(lp9645
a(lp9646
a(lp9647
a(lp9648
a(lp9649
a(lp9650
a(lp9651
a(lp9652
a(lp9653
a(lp9654
a(lp9655
a(lp9656
a(lp9657
a(lp9658
a(lp9659
a(lp9660
a(lp9661
a(lp9662
a(lp9663
a(lp9664
a(lp9665
a(lp9666
a(lp9667
a(lp9668
a(lp9669
a(lp9670
a(lp9671
a(lp9672
a(lp9673
a(lp9674
a(lp9675
a(lp9676
a(lp9677
a(lp9678
a(lp9679
a(lp9680
a(lp9681
a(lp9682
a(lp9683
a(lp9684
a(lp9685
a(lp9686
a(lp9687
a(lp9688
a(lp9689
a(lp9690
a(lp9691
a(lp9692
a(lp9693
a(lp9694
a(lp9695
a(lp9696
a(lp9697
a(lp9698
a(lp9699
a(lp9700
a(lp9701
a(lp9702
a(lp9703
a(lp9704
a(lp9705
a(lp9706
a(lp9707
a(lp9708
a(lp9709
a(lp9710
a(lp9711
a(lp9712
a(lp9713
a(lp9714
a(lp9715
a(lp9716
a(lp9717
a(lp9718
a(lp9719
a(lp9720
a(lp9721
a(lp9722
a(lp9723
a(lp9724
a(lp9725
a(lp9726
a(lp9727
a(lp9728
a(lp9729
a(lp9730
a(lp9731
a(lp9732
a(lp9733
a(lp9734
a(lp9735
a(lp9736
a(lp9737
a(lp9738
a(lp9739
a(lp9740
a(lp9741
a(lp9742
S'14'
p9743
aa(lp9744
a(lp9745
a(lp9746
a(lp9747
S'717'
p9748
aa(lp9749
S'1428'
p9750
aa(lp9751
a(lp9752
S'648'
p9753
aa(lp9754
a(lp9755
S'435'
p9756
aa(lp9757
a(lp9758
g47
aa(lp9759
a(lp9760
S'154'
p9761
aS'1359'
p9762
aa(lp9763
S'1300'
p9764
aa(lp9765
a(lp9766
S'701'
p9767
aS'328'
p9768
aa(lp9769
a(lp9770
S'540'
p9771
aS'484'
p9772
aa(lp9773
g47
aS'586'
p9774
aS'566'
p9775
aa(lp9776
S'240'
p9777
aS'367'
p9778
aS'258'
p9779
ag47
aa(lp9780
a(lp9781
S'552'
p9782
aS'407'
p9783
aS'384'
p9784
aS'214'
p9785
aS'847'
p9786
aS'851'
p9787
aS'865'
p9788
aS'867'
p9789
aS'1095'
p9790
aS'3092'
p9791
aS'3090'
p9792
aS'3091'
p9793
aS'3089'
p9794
aS'3088'
p9795
aS'3085'
p9796
aa(lp9797
S'1792'
p9798
aa(lp9799
a(lp9800
a(lp9801
a(lp9802
a(lp9803
a(lp9804
a(lp9805
a(lp9806
a(lp9807
a(lp9808
a(lp9809
a(lp9810
a(lp9811
a(lp9812
a(lp9813
a(lp9814
a(lp9815
a(lp9816
a(lp9817
a(lp9818
a(lp9819
a(lp9820
a(lp9821
a(lp9822
a(lp9823
a(lp9824
a(lp9825
a(lp9826
a(lp9827
a(lp9828
a(lp9829
a(lp9830
a(lp9831
a(lp9832
a(lp9833
a(lp9834
a(lp9835
a(lp9836
a(lp9837
a(lp9838
a(lp9839
a(lp9840
a(lp9841
a(lp9842
a(lp9843
a(lp9844
a(lp9845
a(lp9846
a(lp9847
a(lp9848
a(lp9849
a(lp9850
a(lp9851
a(lp9852
a(lp9853
a(lp9854
a(lp9855
a(lp9856
a(lp9857
a(lp9858
a(lp9859
a(lp9860
a(lp9861
a(lp9862
a(lp9863
a(lp9864
a(lp9865
a(lp9866
a(lp9867
a(lp9868
a(lp9869
a(lp9870
a(lp9871
a(lp9872
a(lp9873
a(lp9874
a(lp9875
a(lp9876
a(lp9877
a(lp9878
a(lp9879
a(lp9880
a(lp9881
a(lp9882
a(lp9883
a(lp9884
a(lp9885
a(lp9886
a(lp9887
a(lp9888
a(lp9889
a(lp9890
a(lp9891
a(lp9892
a(lp9893
a(lp9894
a(lp9895
a(lp9896
a(lp9897
a(lp9898
a(lp9899
a(lp9900
a(lp9901
a(lp9902
a(lp9903
a(lp9904
a(lp9905
a(lp9906
a(lp9907
a(lp9908
a(lp9909
a(lp9910
a(lp9911
a(lp9912
a(lp9913
a(lp9914
a(lp9915
a(lp9916
a(lp9917
a(lp9918
a(lp9919
a(lp9920
a(lp9921
a(lp9922
a(lp9923
a(lp9924
a(lp9925
a(lp9926
a(lp9927
a(lp9928
a(lp9929
a(lp9930
a(lp9931
a(lp9932
a(lp9933
a(lp9934
a(lp9935
a(lp9936
a(lp9937
a(lp9938
a(lp9939
a(lp9940
a(lp9941
a(lp9942
a(lp9943
a(lp9944
a(lp9945
a(lp9946
a(lp9947
a(lp9948
a(lp9949
a(lp9950
a(lp9951
a(lp9952
a(lp9953
a(lp9954
a(lp9955
a(lp9956
a(lp9957
a(lp9958
a(lp9959
a(lp9960
a(lp9961
a(lp9962
a(lp9963
a(lp9964
a(lp9965
a(lp9966
a(lp9967
a(lp9968
a(lp9969
a(lp9970
a(lp9971
a(lp9972
a(lp9973
a(lp9974
a(lp9975
a(lp9976
a(lp9977
a(lp9978
a(lp9979
a(lp9980
a(lp9981
a(lp9982
a(lp9983
a(lp9984
a(lp9985
a(lp9986
a(lp9987
a(lp9988
a(lp9989
a(lp9990
a(lp9991
S'1856'
p9992
aS'1748'
p9993
aS'1747'
p9994
aa(lp9995
S'1487'
p9996
aa(lp9997
S'1600'
p9998
aS'1298'
p9999
aa(lp10000
S'1729'
p10001
aS'1747'
p10002
aS'1740'
p10003
aa(lp10004
S'1417'
p10005
aS'566'
p10006
aa(lp10007
S'796'
p10008
aS'1323'
p10009
aS'1320'
p10010
aa(lp10011
S'1336'
p10012
aS'725'
p10013
aa(lp10014
a(lp10015
S'1214'
p10016
aS'1423'
p10017
aa(lp10018
S'548'
p10019
aa(lp10020
S'1557'
p10021
aa(lp10022
a(lp10023
a(lp10024
a(lp10025
a(lp10026
a(lp10027
a(lp10028
a(lp10029
a(lp10030
a(lp10031
a(lp10032
a(lp10033
a(lp10034
a(lp10035
a(lp10036
a(lp10037
a(lp10038
a(lp10039
a(lp10040
a(lp10041
a(lp10042
a(lp10043
a(lp10044
a(lp10045
a(lp10046
a(lp10047
a(lp10048
a(lp10049
a(lp10050
a(lp10051
a(lp10052
a(lp10053
a(lp10054
a(lp10055
a(lp10056
S'383'
p10057
aS'19'
p10058
aS'467'
p10059
aS'21'
p10060
aS'44'
p10061
aa(lp10062
a(lp10063
a(lp10064
a(lp10065
a(lp10066
S'467'
p10067
aS'24'
p10068
aa(lp10069
S'969'
p10070
aa(lp10071
S'257'
p10072
aS'11'
p10073
aS'498'
p10074
aS'24'
p10075
aS'33'
p10076
aS'32'
p10077
aa(lp10078
a(lp10079
a(lp10080
a(lp10081
a(lp10082
a(lp10083
a(lp10084
a(lp10085
a(lp10086
a(lp10087
a(lp10088
a(lp10089
a(lp10090
a(lp10091
a(lp10092
a(lp10093
a(lp10094
a(lp10095
a(lp10096
a(lp10097
a(lp10098
a(lp10099
a(lp10100
a(lp10101
a(lp10102
a(lp10103
a(lp10104
a(lp10105
S'96'
p10106
aS'403'
p10107
aS'124'
p10108
aa(lp10109
a(lp10110
a(lp10111
g3277
aa(lp10112
a(lp10113
a(lp10114
a(lp10115
a(lp10116
a(lp10117
a(lp10118
a(lp10119
a(lp10120
a(lp10121
a(lp10122
a(lp10123
a(lp10124
a(lp10125
a(lp10126
a(lp10127
a(lp10128
a(lp10129
a(lp10130
a(lp10131
a(lp10132
a(lp10133
a(lp10134
a(lp10135
a(lp10136
a(lp10137
a(lp10138
a(lp10139
a(lp10140
a(lp10141
a(lp10142
a(lp10143
a(lp10144
a(lp10145
a(lp10146
a(lp10147
a(lp10148
a(lp10149
a(lp10150
a(lp10151
a(lp10152
a(lp10153
a(lp10154
a(lp10155
a(lp10156
a(lp10157
a(lp10158
a(lp10159
a(lp10160
a(lp10161
a(lp10162
a(lp10163
a(lp10164
a(lp10165
S'14'
p10166
aS'607'
p10167
aS'582'
p10168
aa(lp10169
a(lp10170
a(lp10171
a(lp10172
a(lp10173
a(lp10174
a(lp10175
a(lp10176
a(lp10177
a(lp10178
a(lp10179
a(lp10180
a(lp10181
a(lp10182
a(lp10183
a(lp10184
a(lp10185
a(lp10186
a(lp10187
a(lp10188
a(lp10189
a(lp10190
a(lp10191
a(lp10192
a(lp10193
a(lp10194
a(lp10195
a(lp10196
a(lp10197
a(lp10198
a(lp10199
a(lp10200
a(lp10201
a(lp10202
a(lp10203
a(lp10204
a(lp10205
a(lp10206
a(lp10207
a(lp10208
a(lp10209
a(lp10210
a(lp10211
a(lp10212
a(lp10213
a(lp10214
a(lp10215
a(lp10216
S'66'
p10217
aa(lp10218
S'548'
p10219
aS'716'
p10220
aa(lp10221
a(lp10222
a(lp10223
S'757'
p10224
aa(lp10225
a(lp10226
S'395'
p10227
aS'387'
p10228
aa(lp10229
a(lp10230
a(lp10231
S'189'
p10232
aS'642'
p10233
aa(lp10234
S'681'
p10235
aa(lp10236
S'139'
p10237
aa(lp10238
S'999'
p10239
aS'982'
p10240
aa(lp10241
S'600'
p10242
aS'1058'
p10243
aS'1049'
p10244
aa(lp10245
S'519'
p10246
aS'336'
p10247
aa(lp10248
S'512'
p10249
aS'590'
p10250
aS'314'
p10251
aa(lp10252
a(lp10253
a(lp10254
S'1012'
p10255
aa(lp10256
S'1734'
p10257
aS'1882'
p10258
aa(lp10259
a(lp10260
a(lp10261
a(lp10262
a(lp10263
a(lp10264
S'358'
p10265
aS'566'
p10266
aa(lp10267
S'267'
p10268
aa(lp10269
S'249'
p10270
aa(lp10271
a(lp10272
a(lp10273
a(lp10274
a(lp10275
a(lp10276
S'500'
p10277
aS'638'
p10278
aS'569'
p10279
aa(lp10280
S'417'
p10281
aS'531'
p10282
aS'1856'
p10283
aS'917'
p10284
aS'737'
p10285
aS'266'
p10286
aa(lp10287
S'226'
p10288
aS'186'
p10289
aS'46'
p10290
aa(lp10291
S'488'
p10292
aa(lp10293
S'992'
p10294
aS'998'
p10295
aa(lp10296
S'638'
p10297
aa(lp10298
S'512'
p10299
aa(lp10300
S'547'
p10301
aS'764'
p10302
aa(lp10303
S'454'
p10304
aS'139'
p10305
aS'453'
p10306
aa(lp10307
S'410'
p10308
aS'524'
p10309
aS'494'
p10310
aa(lp10311
S'912'
p10312
aS'725'
p10313
aa(lp10314
a(lp10315
S'274'
p10316
aS'689'
p10317
aS'201'
p10318
aS'753'
p10319
aS'755'
p10320
aS'610'
p10321
aa(lp10322
S'274'
p10323
aS'555'
p10324
aS'762'
p10325
aS'1322'
p10326
aS'706'
p10327
aS'570'
p10328
aa(lp10329
a(lp10330
a(lp10331
a(lp10332
a(lp10333
g47
aa(lp10334
a(lp10335
a(lp10336
S'1423'
p10337
aa(lp10338
S'253'
p10339
aS'225'
p10340
aS'268'
p10341
aa(lp10342
a(lp10343
a(lp10344
a(lp10345
a(lp10346
S'383'
p10347
aS'661'
p10348
aS'315'
p10349
aS'597'
p10350
aa(lp10351
S'223'
p10352
aa(lp10353
S'796'
p10354
aS'139'
p10355
aS'1423'
p10356
aS'736'
p10357
aa(lp10358
S'605'
p10359
aa(lp10360
S'544'
p10361
aa(lp10362
S'255'
p10363
aS'225'
p10364
aS'64'
p10365
aS'214'
p10366
aS'213'
p10367
aS'189'
p10368
aS'357'
p10369
aa(lp10370
S'980'
p10371
aa(lp10372
S'272'
p10373
aS'90'
p10374
aS'373'
p10375
aS'382'
p10376
aS'50'
p10377
aS'526'
p10378
aS'140'
p10379
aS'791'
p10380
aS'200'
p10381
aS'838'
p10382
aS'505'
p10383
aS'601'
p10384
aS'600'
p10385
aS'486'
p10386
aS'1058'
p10387
ag47
aS'313'
p10388
aS'317'
p10389
aS'314'
p10390
aS'693'
p10391
aS'35'
p10392
aS'136'
p10393
aS'322'
p10394
aS'329'
p10395
aS'573'
p10396
aS'730'
p10397
aS'114'
p10398
aa(lp10399
S'685'
p10400
aS'544'
p10401
aS'531'
p10402
aS'436'
p10403
aS'925'
p10404
aS'926'
p10405
aS'919'
p10406
aS'773'
p10407
aS'966'
p10408
aS'898'
p10409
aS'694'
p10410
aa(lp10411
S'1380'
p10412
aS'1237'
p10413
aS'638'
p10414
aS'1320'
p10415
aS'1539'
p10416
aS'2095'
p10417
aS'2113'
p10418
aS'2114'
p10419
aS'2102'
p10420
aa(lp10421
S'754'
p10422
aS'189'
p10423
aa(lp10424
S'494'
p10425
aa(lp10426
a(lp10427
S'83'
p10428
aa(lp10429
a(lp10430
a(lp10431
S'144'
p10432
aa(lp10433
S'72'
p10434
aa(lp10435
S'234'
p10436
aS'333'
p10437
aa(lp10438
S'508'
p10439
aS'199'
p10440
aS'719'
p10441
aS'793'
p10442
aa(lp10443
S'216'
p10444
aa(lp10445
S'1423'
p10446
aa(lp10447
S'395'
p10448
aS'399'
p10449
aS'414'
p10450
aS'227'
p10451
aS'459'
p10452
aS'303'
p10453
aS'445'
p10454
aS'335'
p10455
aa(lp10456
S'241'
p10457
aS'1145'
p10458
aS'228'
p10459
aS'236'
p10460
aS'494'
p10461
aS'22'
p10462
aS'642'
p10463
aS'323'
p10464
aS'582'
p10465
aa(lp10466
S'139'
p10467
aa(lp10468
S'621'
p10469
aS'379'
p10470
aS'242'
p10471
aS'250'
p10472
aS'251'
p10473
aS'536'
p10474
aS'69'
p10475
aS'215'
p10476
aS'212'
p10477
aS'196'
p10478
aS'468'
p10479
aS'263'
p10480
aS'262'
p10481
aS'266'
p10482
aS'3031'
p10483
aS'3025'
p10484
aS'2573'
p10485
aa(lp10486
a(lp10487
S'189'
p10488
aS'719'
p10489
aS'139'
p10490
aa(lp10491
S'348'
p10492
aS'225'
p10493
aS'21'
p10494
aS'189'
p10495
aS'736'
p10496
aS'48'
p10497
aa(lp10498
S'441'
p10499
aS'994'
p10500
aa(lp10501
S'511'
p10502
aS'1104'
p10503
aS'906'
p10504
aS'1309'
p10505
aa(lp10506
S'297'
p10507
aS'1081'
p10508
aS'956'
p10509
aS'597'
p10510
aa(lp10511
a(lp10512
S'763'
p10513
aS'737'
p10514
aS'1164'
p10515
aa(lp10516
S'686'
p10517
aS'545'
p10518
aS'690'
p10519
aS'524'
p10520
aS'753'
p10521
aS'758'
p10522
aS'972'
p10523
aS'772'
p10524
aS'874'
p10525
aS'641'
p10526
aS'953'
p10527
aS'718'
p10528
aS'713'
p10529
aS'947'
p10530
aS'707'
p10531
aS'730'
p10532
aS'568'
p10533
aS'565'
p10534
aS'726'
p10535
aS'1298'
p10536
aa(lp10537
S'499'
p10538
aS'77'
p10539
ag47
aS'632'
p10540
aa(lp10541
S'1610'
p10542
aS'1535'
p10543
aa(lp10544
S'539'
p10545
aa(lp10546
S'103'
p10547
aS'817'
p10548
aS'145'
p10549
aS'450'
p10550
aS'486'
p10551
aS'189'
p10552
aS'477'
p10553
aS'478'
p10554
aa(lp10555
S'379'
p10556
aS'238'
p10557
aS'505'
p10558
aa(lp10559
S'249'
p10560
aS'795'
p10561
aS'886'
p10562
aS'774'
p10563
aS'30'
p10564
aS'281'
p10565
aS'2870'
p10566
aS'2875'
p10567
aS'2939'
p10568
aS'2928'
p10569
aa(lp10570
S'408'
p10571
aS'226'
p10572
aS'69'
p10573
aa(lp10574
S'342'
p10575
aS'398'
p10576
aS'1012'
p10577
aa(lp10578
a(lp10579
a(lp10580
S'1371'
p10581
aS'189'
p10582
aS'72'
p10583
aS'1348'
p10584
aS'266'
p10585
aa(lp10586
S'20'
p10587
aa(lp10588
a(lp10589
S'548'
p10590
aS'1233'
p10591
aS'871'
p10592
aS'691'
p10593
aa(lp10594
S'106'
p10595
aS'544'
p10596
aS'548'
p10597
aS'431'
p10598
aS'707'
p10599
aa(lp10600
g47
aS'1462'
p10601
aS'82'
p10602
aa(lp10603
S'548'
p10604
aS'638'
p10605
aS'1313'
p10606
aS'719'
p10607
aS'718'
p10608
aS'736'
p10609
aS'725'
p10610
aa(lp10611
S'247'
p10612
aS'201'
p10613
aS'719'
p10614
aS'322'
p10615
aa(lp10616
S'231'
p10617
aS'917'
p10618
aS'666'
p10619
aa(lp10620
S'1100'
p10621
aa(lp10622
S'414'
p10623
aS'1557'
p10624
aS'1524'
p10625
aS'662'
p10626
aS'604'
p10627
aS'139'
p10628
aS'138'
p10629
aa(lp10630
S'414'
p10631
aS'531'
p10632
aS'145'
p10633
aS'441'
p10634
aa(lp10635
S'30'
p10636
aa(lp10637
a(lp10638
a(lp10639
S'1017'
p10640
aS'76'
p10641
aS'312'
p10642
aS'322'
p10643
aS'326'
p10644
aS'120'
p10645
aa(lp10646
S'817'
p10647
aS'149'
p10648
aS'211'
p10649
aS'486'
p10650
aS'483'
p10651
aS'195'
p10652
aS'356'
p10653
aS'351'
p10654
aS'266'
p10655
aS'474'
p10656
aS'478'
p10657
aa(lp10658
S'1629'
p10659
aS'1529'
p10660
aa(lp10661
S'707'
p10662
aa(lp10663
S'342'
p10664
aS'387'
p10665
aS'1033'
p10666
aS'602'
p10667
aa(lp10668
S'349'
p10669
aS'189'
p10670
aS'122'
p10671
aS'267'
p10672
aa(lp10673
S'226'
p10674
aS'156'
p10675
aS'1322'
p10676
aS'1637'
p10677
aa(lp10678
S'201'
p10679
aS'446'
p10680
aS'139'
p10681
aS'3092'
p10682
aa(lp10683
S'684'
p10684
aa(lp10685
S'544'
p10686
aS'436'
p10687
aS'1035'
p10688
aS'590'
p10689
aa(lp10690
S'900'
p10691
aS'1696'
p10692
aS'189'
p10693
aS'1506'
p10694
aa(lp10695
S'767'
p10696
aS'1704'
p10697
aS'524'
p10698
aS'512'
p10699
aS'1037'
p10700
aS'911'
p10701
aS'755'
p10702
aS'747'
p10703
aS'614'
p10704
aS'189'
p10705
aS'883'
p10706
aS'1319'
p10707
aa(lp10708
S'96'
p10709
aS'1282'
p10710
aS'406'
p10711
aS'1372'
p10712
aS'1378'
p10713
aS'1762'
p10714
aS'1154'
p10715
aS'1232'
p10716
aS'937'
p10717
aS'1136'
p10718
aS'1035'
p10719
aS'1456'
p10720
aS'1302'
p10721
aS'869'
p10722
aS'886'
p10723
aS'1040'
p10724
aS'1261'
p10725
aS'1316'
p10726
aS'1330'
p10727
aS'1410'
p10728
aS'1324'
p10729
aS'1252'
p10730
aS'958'
p10731
aS'1265'
p10732
aS'1405'
p10733
aS'1260'
p10734
aS'1340'
p10735
aS'1425'
p10736
aS'1357'
p10737
aS'1514'
p10738
aS'983'
p10739
aS'981'
p10740
aS'2268'
p10741
aS'2263'
p10742
aS'2040'
p10743
aS'1994'
p10744
aS'1996'
p10745
aS'1999'
p10746
aS'1998'
p10747
aS'1969'
p10748
aS'1965'
p10749
aS'1961'
p10750
aS'1974'
p10751
aS'1972'
p10752
aS'1958'
p10753
aS'2067'
p10754
aS'1929'
p10755
aS'2895'
p10756
aS'2112'
p10757
aS'2024'
p10758
aS'2023'
p10759
aS'2751'
p10760
aS'2002'
p10761
aS'2000'
p10762
aS'2012'
p10763
aS'2062'
p10764
aS'2928'
p10765
aa(lp10766
S'1173'
p10767
aS'366'
p10768
aS'590'
p10769
aS'1689'
p10770
aS'420'
p10771
aa(lp10772
S'393'
p10773
aS'522'
p10774
aS'662'
p10775
aa(lp10776
S'172'
p10777
aS'1239'
p10778
aS'869'
p10779
aS'632'
p10780
aS'648'
p10781
aS'737'
p10782
aS'283'
p10783
aS'2533'
p10784
aS'2557'
p10785
aS'2571'
p10786
aa(lp10787
S'383'
p10788
aS'202'
p10789
aa(lp10790
S'558'
p10791
aS'557'
p10792
aS'519'
p10793
aS'785'
p10794
aS'64'
p10795
ag47
aS'305'
p10796
aa(lp10797
S'621'
p10798
aS'548'
p10799
aS'361'
p10800
aS'526'
p10801
aS'237'
p10802
aS'142'
p10803
aS'205'
p10804
aS'1035'
p10805
aS'600'
p10806
aS'199'
p10807
aS'632'
p10808
aS'642'
p10809
aS'306'
p10810
aS'598'
p10811
aS'582'
p10812
aS'725'
p10813
aa(lp10814
a(lp10815
S'240'
p10816
aS'242'
p10817
aS'365'
p10818
aS'250'
p10819
aS'51'
p10820
aS'149'
p10821
aS'467'
p10822
aS'716'
p10823
aS'872'
p10824
aS'306'
p10825
aS'32'
p10826
aS'139'
p10827
aS'1564'
p10828
aS'3093'
p10829
aa(lp10830
S'1128'
p10831
aS'142'
p10832
aS'512'
p10833
aS'926'
p10834
aS'1035'
p10835
aS'919'
p10836
aS'494'
p10837
aS'490'
p10838
aS'590'
p10839
aS'899'
p10840
aS'694'
p10841
aS'708'
p10842
aS'993'
p10843
aS'730'
p10844
aS'462'
p10845
aS'980'
p10846
aS'1186'
p10847
aS'725'
p10848
aa(lp10849
S'153'
p10850
aS'209'
p10851
aS'1796'
p10852
aS'1637'
p10853
aS'1290'
p10854
aS'3085'
p10855
aa(lp10856
S'544'
p10857
aS'436'
p10858
aS'512'
p10859
aS'634'
p10860
aS'719'
p10861
aS'441'
p10862
aS'582'
p10863
aS'566'
p10864
aa(lp10865
S'96'
p10866
aS'535'
p10867
aS'204'
p10868
aS'351'
p10869
aS'1169'
p10870
aa(lp10871
S'75'
p10872
aS'445'
p10873
aS'358'
p10874
aa(lp10875
S'556'
p10876
aS'547'
p10877
aS'526'
p10878
aa(lp10879
S'895'
p10880
aS'252'
p10881
aS'883'
p10882
aS'772'
p10883
aS'641'
p10884
aS'766'
p10885
aS'691'
p10886
aS'139'
p10887
aS'651'
p10888
aa(lp10889
S'1193'
p10890
aS'410'
p10891
aS'438'
p10892
aS'824'
p10893
aS'626'
p10894
aS'625'
p10895
aS'1035'
p10896
aS'1101'
p10897
aS'1033'
p10898
aS'605'
p10899
aS'467'
p10900
aS'853'
p10901
aS'1055'
p10902
aS'1058'
p10903
aS'616'
p10904
aS'590'
p10905
aS'632'
p10906
aS'765'
p10907
aS'598'
p10908
aS'33'
p10909
aS'643'
p10910
aS'997'
p10911
aS'582'
p10912
aS'981'
p10913
aS'565'
p10914
aS'1290'
p10915
aS'2303'
p10916
aS'2730'
p10917
aS'2727'
p10918
aS'2530'
p10919
aS'2560'
p10920
aa(lp10921
S'849'
p10922
aS'757'
p10923
aS'869'
p10924
aS'1245'
p10925
aS'648'
p10926
aS'725'
p10927
aa(lp10928
S'531'
p10929
aS'522'
p10930
aS'1037'
p10931
aS'189'
p10932
aS'1678'
p10933
aS'718'
p10934
aS'598'
p10935
aS'441'
p10936
aS'691'
p10937
aS'648'
p10938
aS'1453'
p10939
aS'651'
p10940
aS'737'
p10941
aS'726'
p10942
aa(lp10943
a(lp10944
S'189'
p10945
aS'48'
p10946
aa(lp10947
S'662'
p10948
aS'602'
p10949
aS'189'
p10950
aS'1313'
p10951
aS'139'
p10952
aS'89'
p10953
aS'587'
p10954
aS'578'
p10955
aa(lp10956
S'163'
p10957
aS'437'
p10958
aS'600'
p10959
aS'487'
p10960
aS'322'
p10961
aS'326'
p10962
aS'353'
p10963
aS'118'
p10964
aa(lp10965
S'342'
p10966
aS'100'
p10967
aS'107'
p10968
aS'400'
p10969
aS'392'
p10970
aS'396'
p10971
aS'549'
p10972
aS'362'
p10973
aS'385'
p10974
aS'222'
p10975
aS'239'
p10976
aS'234'
p10977
aS'235'
p10978
aS'217'
p10979
aS'212'
p10980
aS'419'
p10981
aS'313'
p10982
aS'315'
p10983
aS'444'
p10984
aS'302'
p10985
aS'35'
p10986
aS'336'
p10987
aS'324'
p10988
aS'354'
p10989
aS'281'
p10990
aS'114'
p10991
aa(lp10992
S'544'
p10993
aS'435'
p10994
aS'604'
p10995
aS'189'
p10996
aS'139'
p10997
aa(lp10998
S'553'
p10999
aS'526'
p11000
aS'600'
p11001
aS'1206'
p11002
aS'20'
p11003
aS'189'
p11004
aS'667'
p11005
aS'642'
p11006
aS'764'
p11007
aS'139'
p11008
aS'350'
p11009
aS'358'
p11010
aS'267'
p11011
aS'1637'
p11012
aS'2293'
p11013
aa(lp11014
S'1524'
p11015
aa(lp11016
S'621'
p11017
aS'1035'
p11018
aa(lp11019
S'869'
p11020
aS'1322'
p11021
aa(lp11022
S'1280'
p11023
aS'1158'
p11024
aS'1017'
p11025
aS'1100'
p11026
aS'1032'
p11027
aS'747'
p11028
aS'972'
p11029
aS'1322'
p11030
aS'1323'
p11031
aS'732'
p11032
aS'1183'
p11033
aa(lp11034
S'642'
p11035
aa(lp11036
S'687'
p11037
aS'545'
p11038
aS'1155'
p11039
aS'1154'
p11040
aS'797'
p11041
aS'781'
p11042
aS'782'
p11043
aS'460'
p11044
aS'883'
p11045
aS'882'
p11046
aS'772'
p11047
aS'897'
p11048
aS'765'
p11049
aS'675'
p11050
aS'640'
p11051
aS'648'
p11052
aS'704'
p11053
aS'584'
p11054
aS'731'
p11055
aS'281'
p11056
aS'116'
p11057
aS'111'
p11058
aS'113'
p11059
aS'2850'
p11060
aa(lp11061
S'107'
p11062
aS'373'
p11063
aS'247'
p11064
aS'176'
p11065
aS'805'
p11066
aS'51'
p11067
aS'425'
p11068
aS'202'
p11069
aS'500'
p11070
aS'600'
p11071
aS'198'
p11072
aS'494'
p11073
aS'490'
p11074
aS'182'
p11075
aS'189'
p11076
aS'315'
p11077
aS'679'
p11078
aS'694'
p11079
aS'453'
p11080
aS'264'
p11081
aa(lp11082
S'1172'
p11083
aS'1609'
p11084
aS'1491'
p11085
aS'1705'
p11086
aS'933'
p11087
aS'511'
p11088
aS'1024'
p11089
aS'605'
p11090
aS'1449'
p11091
aS'1472'
p11092
aS'1081'
p11093
aS'1099'
p11094
aS'1415'
p11095
aS'956'
p11096
aS'1665'
p11097
aS'714'
p11098
aS'737'
p11099
aS'1518'
p11100
aS'1636'
p11101
aS'1169'
p11102
aS'1715'
p11103
aS'1714'
p11104
aa(lp11105
S'1811'
p11106
aS'1812'
p11107
aS'1694'
p11108
aS'1085'
p11109
aS'1319'
p11110
aa(lp11111
S'1282'
p11112
aS'513'
p11113
aS'853'
p11114
aS'189'
p11115
aS'1676'
p11116
aS'1464'
p11117
aS'139'
p11118
aS'736'
p11119
aa(lp11120
S'555'
p11121
aS'607'
p11122
aS'610'
p11123
aS'776'
p11124
aa(lp11125
S'436'
p11126
aS'512'
p11127
aS'60'
p11128
aS'747'
p11129
aS'590'
p11130
aS'642'
p11131
aS'725'
p11132
aS'2703'
p11133
aa(lp11134
S'1578'
p11135
aS'242'
p11136
aS'363'
p11137
aS'423'
p11138
aS'232'
p11139
aS'1723'
p11140
aS'754'
p11141
aS'773'
p11142
aS'1314'
p11143
aS'402'
p11144
aS'894'
p11145
aS'1674'
p11146
aS'679'
p11147
aS'1336'
p11148
aS'321'
p11149
aS'329'
p11150
aS'283'
p11151
aS'269'
p11152
aa(lp11153
S'294'
p11154
aS'1284'
p11155
aS'240'
p11156
aS'1611'
p11157
aS'225'
p11158
aS'436'
p11159
aS'437'
p11160
aS'11'
p11161
aS'837'
p11162
aS'1455'
p11163
aS'490'
p11164
aS'44'
p11165
aa(lp11166
S'297'
p11167
aS'106'
p11168
aS'1374'
p11169
aS'454'
p11170
aS'391'
p11171
aS'1144'
p11172
aS'692'
p11173
aS'414'
p11174
aS'1156'
p11175
aS'539'
p11176
aS'1124'
p11177
aS'933'
p11178
aS'1136'
p11179
aS'1276'
p11180
aS'1277'
p11181
aS'1002'
p11182
aS'1218'
p11183
aS'662'
p11184
aS'1036'
p11185
aS'487'
p11186
aS'421'
p11187
aS'864'
p11188
aS'866'
p11189
aS'776'
p11190
aS'1314'
p11191
aS'311'
p11192
aS'130'
p11193
aS'134'
p11194
aS'328'
p11195
aS'570'
p11196
aS'358'
p11197
aS'1166'
p11198
aS'1361'
p11199
aS'1997'
p11200
aS'1996'
p11201
aS'1999'
p11202
aS'1966'
p11203
aS'1967'
p11204
aS'1960'
p11205
aS'1970'
p11206
aS'1949'
p11207
aS'1955'
p11208
aS'1950'
p11209
aS'1953'
p11210
aS'1958'
p11211
aS'2705'
p11212
aS'1929'
p11213
aS'1852'
p11214
aS'1932'
p11215
aS'1935'
p11216
aS'1939'
p11217
aS'1938'
p11218
aS'1905'
p11219
aS'1902'
p11220
aS'1861'
p11221
aS'1864'
p11222
aS'1867'
p11223
aS'1866'
p11224
aS'1897'
p11225
aS'1880'
p11226
aS'1989'
p11227
aa(lp11228
S'553'
p11229
aS'699'
p11230
aS'544'
p11231
aS'1380'
p11232
aS'1156'
p11233
aS'811'
p11234
aS'511'
p11235
aS'189'
p11236
aS'1676'
p11237
aS'306'
p11238
aa(lp11239
a(lp11240
a(lp11241
a(lp11242
a(lp11243
a(lp11244
a(lp11245
a(lp11246
a(lp11247
a(lp11248
a(lp11249
a(lp11250
a(lp11251
a(lp11252
a(lp11253
a(lp11254
a(lp11255
a(lp11256
a(lp11257
a(lp11258
a(lp11259
a(lp11260
a(lp11261
a(lp11262
a(lp11263
a(lp11264
a(lp11265
a(lp11266
a(lp11267
a(lp11268
a(lp11269
a(lp11270
a(lp11271
a(lp11272
a(lp11273
a(lp11274
a(lp11275
a(lp11276
a(lp11277
a(lp11278
a(lp11279
a(lp11280
a(lp11281
a(lp11282
a(lp11283
a(lp11284
a(lp11285
a(lp11286
a(lp11287
a(lp11288
a(lp11289
a(lp11290
a(lp11291
a(lp11292
a(lp11293
a(lp11294
a(lp11295
a(lp11296
a(lp11297
a(lp11298
a(lp11299
a(lp11300
a(lp11301
a(lp11302
a(lp11303
a(lp11304
a(lp11305
a(lp11306
a(lp11307
a(lp11308
a(lp11309
a(lp11310
a(lp11311
a(lp11312
a(lp11313
a(lp11314
a(lp11315
a(lp11316
a(lp11317
a(lp11318
a(lp11319
a(lp11320
a(lp11321
a(lp11322
a(lp11323
a(lp11324
a(lp11325
a(lp11326
a(lp11327
a(lp11328
a(lp11329
a(lp11330
a(lp11331
a(lp11332
a(lp11333
a(lp11334
a(lp11335
a(lp11336
a(lp11337
a(lp11338
a(lp11339
a(lp11340
a(lp11341
a(lp11342
a(lp11343
a(lp11344
a(lp11345
a(lp11346
a(lp11347
a(lp11348
a(lp11349
a(lp11350
a(lp11351
a(lp11352
a(lp11353
a(lp11354
a(lp11355
a(lp11356
a(lp11357
a(lp11358
a(lp11359
a(lp11360
a(lp11361
a(lp11362
a(lp11363
a(lp11364
a(lp11365
a(lp11366
a(lp11367
a(lp11368
a(lp11369
a(lp11370
a(lp11371
a(lp11372
a(lp11373
a(lp11374
a(lp11375
a(lp11376
a(lp11377
a(lp11378
a(lp11379
a(lp11380
a(lp11381
a(lp11382
a(lp11383
a(lp11384
a(lp11385
a(lp11386
a(lp11387
a(lp11388
a(lp11389
a(lp11390
a(lp11391
a(lp11392
a(lp11393
a(lp11394
a(lp11395
a(lp11396
a(lp11397
a(lp11398
a(lp11399
a(lp11400
a(lp11401
a(lp11402
a(lp11403
a(lp11404
a(lp11405
a(lp11406
a(lp11407
a(lp11408
a(lp11409
a(lp11410
a(lp11411
a(lp11412
a(lp11413
a(lp11414
a(lp11415
a(lp11416
a(lp11417
a(lp11418
a(lp11419
a(lp11420
a(lp11421
a(lp11422
a(lp11423
a(lp11424
a(lp11425
a(lp11426
a(lp11427
a(lp11428
a(lp11429
a(lp11430
a(lp11431
a(lp11432
a(lp11433
a(lp11434
a(lp11435
a(lp11436
a(lp11437
a(lp11438
a(lp11439
a(lp11440
a(lp11441
a(lp11442
a(lp11443
a(lp11444
a(lp11445
a(lp11446
a(lp11447
a(lp11448
a(lp11449
a(lp11450
a(lp11451
a(lp11452
a(lp11453
a(lp11454
a(lp11455
a(lp11456
a(lp11457
a(lp11458
a(lp11459
a(lp11460
a(lp11461
a(lp11462
a(lp11463
a(lp11464
a(lp11465
a(lp11466
a(lp11467
a(lp11468
a(lp11469
a(lp11470
a(lp11471
a(lp11472
a(lp11473
a(lp11474
a(lp11475
a(lp11476
a(lp11477
a(lp11478
a(lp11479
a(lp11480
a(lp11481
a(lp11482
a(lp11483
a(lp11484
a(lp11485
a(lp11486
a(lp11487
a(lp11488
a(lp11489
a(lp11490
a(lp11491
a(lp11492
a(lp11493
a(lp11494
a(lp11495
a(lp11496
a(lp11497
a(lp11498
a(lp11499
a(lp11500
a(lp11501
a(lp11502
a(lp11503
a(lp11504
a(lp11505
a(lp11506
a(lp11507
a(lp11508
a(lp11509
a(lp11510
a(lp11511
a(lp11512
a(lp11513
a(lp11514
a(lp11515
a(lp11516
a(lp11517
a(lp11518
a(lp11519
a(lp11520
a(lp11521
a(lp11522
a(lp11523
a(lp11524
a(lp11525
a(lp11526
a(lp11527
a(lp11528
a(lp11529
a(lp11530
a(lp11531
a(lp11532
a(lp11533
a(lp11534
a(lp11535
a(lp11536
a(lp11537
a(lp11538
a(lp11539
a(lp11540
a(lp11541
a(lp11542
a(lp11543
a(lp11544
a(lp11545
a(lp11546
a(lp11547
a(lp11548
a(lp11549
a(lp11550
a(lp11551
a(lp11552
a(lp11553
a(lp11554
a(lp11555
a(lp11556
a(lp11557
a(lp11558
a(lp11559
a(lp11560
a(lp11561
a(lp11562
a(lp11563
a(lp11564
a(lp11565
a(lp11566
a(lp11567
a(lp11568
a(lp11569
a(lp11570
a(lp11571
a(lp11572
a(lp11573
a(lp11574
a(lp11575
a(lp11576
a(lp11577
a(lp11578
a(lp11579
a(lp11580
a(lp11581
a(lp11582
a(lp11583
a(lp11584
a(lp11585
a(lp11586
a(lp11587
a(lp11588
a(lp11589
a(lp11590
a(lp11591
a(lp11592
a(lp11593
a(lp11594
a(lp11595
a(lp11596
a(lp11597
a(lp11598
a(lp11599
a(lp11600
a(lp11601
a(lp11602
a(lp11603
a(lp11604
a(lp11605
a(lp11606
a(lp11607
a(lp11608
S'1757'
p11609
aS'1281'
p11610
aS'1607'
p11611
aS'1774'
p11612
aS'1551'
p11613
aS'1553'
p11614
aS'1674'
p11615
aS'1533'
p11616
aS'1663'
p11617
aS'1650'
p11618
aS'1643'
p11619
aS'1649'
p11620
aS'1638'
p11621
aS'1715'
p11622
aa(lp11623
S'1618'
p11624
aS'1542'
p11625
aS'1153'
p11626
aS'1557'
p11627
aS'1706'
p11628
aS'1571'
p11629
aS'1035'
p11630
aS'1414'
p11631
aS'350'
p11632
aS'1638'
p11633
aa(lp11634
a(lp11635
a(lp11636
S'1607'
p11637
aS'1839'
p11638
aS'1458'
p11639
aS'1663'
p11640
aS'1652'
p11641
aS'1518'
p11642
aS'1635'
p11643
aS'1638'
p11644
aS'1715'
p11645
aa(lp11646
S'1284'
p11647
aS'1571'
p11648
aS'1588'
p11649
aS'1856'
p11650
aS'1883'
p11651
aa(lp11652
S'1819'
p11653
aS'1837'
p11654
aS'1570'
p11655
aS'1581'
p11656
aS'1473'
p11657
aS'1535'
p11658
aS'1655'
p11659
aa(lp11660
S'1346'
p11661
aS'1618'
p11662
aS'438'
p11663
aS'1837'
p11664
aS'1839'
p11665
aS'1716'
p11666
aS'1571'
p11667
aS'1570'
p11668
aS'638'
p11669
aS'1674'
p11670
aS'1655'
p11671
aS'1643'
p11672
aS'358'
p11673
aS'1796'
p11674
aS'1632'
p11675
aS'1638'
p11676
aS'1714'
p11677
aa(lp11678
S'1553'
p11679
aS'1676'
p11680
aa(lp11681
a(lp11682
a(lp11683
a(lp11684
a(lp11685
a(lp11686
a(lp11687
a(lp11688
a(lp11689
a(lp11690
a(lp11691
a(lp11692
a(lp11693
a(lp11694
a(lp11695
a(lp11696
a(lp11697
a(lp11698
a(lp11699
a(lp11700
a(lp11701
a(lp11702
a(lp11703
a(lp11704
a(lp11705
a(lp11706
a(lp11707
a(lp11708
a(lp11709
a(lp11710
a(lp11711
a(lp11712
a(lp11713
a(lp11714
a(lp11715
a(lp11716
a(lp11717
a(lp11718
a(lp11719
a(lp11720
a(lp11721
a(lp11722
a(lp11723
a(lp11724
a(lp11725
a(lp11726
a(lp11727
a(lp11728
a(lp11729
a(lp11730
a(lp11731
a(lp11732
a(lp11733
a(lp11734
a(lp11735
a(lp11736
a(lp11737
a(lp11738
a(lp11739
a(lp11740
a(lp11741
a(lp11742
a(lp11743
a(lp11744
a(lp11745
a(lp11746
a(lp11747
a(lp11748
a(lp11749
a(lp11750
S'698'
p11751
aS'156'
p11752
aS'791'
p11753
aS'784'
p11754
aS'1051'
p11755
aS'869'
p11756
aS'2544'
p11757
aS'2800'
p11758
aa(lp11759
a(lp11760
a(lp11761
a(lp11762
a(lp11763
a(lp11764
a(lp11765
a(lp11766
a(lp11767
a(lp11768
a(lp11769
a(lp11770
a(lp11771
a(lp11772
a(lp11773
a(lp11774
a(lp11775
a(lp11776
a(lp11777
a(lp11778
a(lp11779
a(lp11780
a(lp11781
a(lp11782
a(lp11783
a(lp11784
a(lp11785
a(lp11786
a(lp11787
a(lp11788
a(lp11789
a(lp11790
a(lp11791
a(lp11792
a(lp11793
a(lp11794
a(lp11795
a(lp11796
a(lp11797
a(lp11798
a(lp11799
a(lp11800
a(lp11801
a(lp11802
a(lp11803
S'513'
p11804
aa(lp11805
a(lp11806
a(lp11807
a(lp11808
a(lp11809
a(lp11810
a(lp11811
a(lp11812
a(lp11813
a(lp11814
a(lp11815
a(lp11816
a(lp11817
a(lp11818
a(lp11819
a(lp11820
a(lp11821
a(lp11822
a(lp11823
a(lp11824
a(lp11825
a(lp11826
a(lp11827
a(lp11828
a(lp11829
a(lp11830
a(lp11831
a(lp11832
a(lp11833
a(lp11834
a(lp11835
a(lp11836
a(lp11837
a(lp11838
a(lp11839
a(lp11840
a(lp11841
a(lp11842
a(lp11843
a(lp11844
a(lp11845
a(lp11846
a(lp11847
a(lp11848
a(lp11849
a(lp11850
a(lp11851
a(lp11852
a(lp11853
a(lp11854
a(lp11855
a(lp11856
a(lp11857
a(lp11858
a(lp11859
a(lp11860
a(lp11861
a(lp11862
a(lp11863
a(lp11864
a(lp11865
a(lp11866
a(lp11867
a(lp11868
a(lp11869
a(lp11870
a(lp11871
a(lp11872
a(lp11873
a(lp11874
a(lp11875
a(lp11876
a(lp11877
a(lp11878
a(lp11879
a(lp11880
a(lp11881
a(lp11882
a(lp11883
a(lp11884
a(lp11885
a(lp11886
a(lp11887
a(lp11888
a(lp11889
a(lp11890
a(lp11891
a(lp11892
a(lp11893
a(lp11894
a(lp11895
a(lp11896
a(lp11897
a(lp11898
a(lp11899
a(lp11900
a(lp11901
a(lp11902
a(lp11903
a(lp11904
a(lp11905
a(lp11906
a(lp11907
a(lp11908
a(lp11909
a(lp11910
a(lp11911
a(lp11912
a(lp11913
a(lp11914
a(lp11915
a(lp11916
a(lp11917
a(lp11918
a(lp11919
a(lp11920
a(lp11921
a(lp11922
a(lp11923
a(lp11924
a(lp11925
a(lp11926
a(lp11927
a(lp11928
a(lp11929
a(lp11930
a(lp11931
a(lp11932
a(lp11933
a(lp11934
a(lp11935
a(lp11936
a(lp11937
a(lp11938
a(lp11939
a(lp11940
a(lp11941
a(lp11942
a(lp11943
a(lp11944
a(lp11945
a(lp11946
a(lp11947
a(lp11948
a(lp11949
a(lp11950
a(lp11951
a(lp11952
a(lp11953
a(lp11954
a(lp11955
a(lp11956
a(lp11957
a(lp11958
a(lp11959
a(lp11960
a(lp11961
a(lp11962
a(lp11963
a(lp11964
a(lp11965
a(lp11966
a(lp11967
a(lp11968
a(lp11969
a(lp11970
a(lp11971
a(lp11972
a(lp11973
a(lp11974
a(lp11975
a(lp11976
a(lp11977
a(lp11978
a(lp11979
a(lp11980
a(lp11981
a(lp11982
a(lp11983
a(lp11984
a(lp11985
a(lp11986
a(lp11987
a(lp11988
a(lp11989
a(lp11990
a(lp11991
a(lp11992
a(lp11993
a(lp11994
a(lp11995
a(lp11996
a(lp11997
a(lp11998
a(lp11999
a(lp12000
a(lp12001
a(lp12002
a(lp12003
a(lp12004
a(lp12005
a(lp12006
S'1590'
p12007
aa(lp12008
a(lp12009
a(lp12010
a(lp12011
a(lp12012
a(lp12013
a(lp12014
a(lp12015
a(lp12016
a(lp12017
a(lp12018
a(lp12019
a(lp12020
a(lp12021
a(lp12022
a(lp12023
a(lp12024
a(lp12025
a(lp12026
a(lp12027
a(lp12028
a(lp12029
a(lp12030
a(lp12031
a(lp12032
a(lp12033
a(lp12034
a(lp12035
a(lp12036
a(lp12037
a(lp12038
a(lp12039
a(lp12040
a(lp12041
a(lp12042
a(lp12043
a(lp12044
a(lp12045
a(lp12046
a(lp12047
a(lp12048
a(lp12049
a(lp12050
a(lp12051
a(lp12052
a(lp12053
a(lp12054
a(lp12055
a(lp12056
a(lp12057
a(lp12058
a(lp12059
a(lp12060
a(lp12061
a(lp12062
a(lp12063
a(lp12064
a(lp12065
a(lp12066
a(lp12067
a(lp12068
a(lp12069
a(lp12070
a(lp12071
a(lp12072
a(lp12073
a(lp12074
a(lp12075
a(lp12076
a(lp12077
a(lp12078
a(lp12079
a(lp12080
a(lp12081
a(lp12082
a(lp12083
a(lp12084
a(lp12085
a(lp12086
a(lp12087
a(lp12088
a(lp12089
a(lp12090
a(lp12091
a(lp12092
a(lp12093
a(lp12094
a(lp12095
a(lp12096
a(lp12097
a(lp12098
a(lp12099
a(lp12100
a(lp12101
a(lp12102
a(lp12103
a(lp12104
a(lp12105
a(lp12106
a(lp12107
a(lp12108
a(lp12109
a(lp12110
a(lp12111
a(lp12112
a(lp12113
a(lp12114
a(lp12115
a(lp12116
a(lp12117
a(lp12118
a(lp12119
a(lp12120
a(lp12121
a(lp12122
a(lp12123
a(lp12124
a(lp12125
a(lp12126
a(lp12127
a(lp12128
a(lp12129
a(lp12130
a(lp12131
a(lp12132
a(lp12133
a(lp12134
a(lp12135
a(lp12136
a(lp12137
a(lp12138
a(lp12139
a(lp12140
a(lp12141
a(lp12142
a(lp12143
a(lp12144
a(lp12145
a(lp12146
a(lp12147
a(lp12148
a(lp12149
a(lp12150
a(lp12151
a(lp12152
a(lp12153
a(lp12154
a(lp12155
a(lp12156
a(lp12157
S'1344'
p12158
aa(lp12159
a(lp12160
a(lp12161
a(lp12162
a(lp12163
a(lp12164
a(lp12165
a(lp12166
a(lp12167
a(lp12168
a(lp12169
a(lp12170
a(lp12171
a(lp12172
a(lp12173
a(lp12174
a(lp12175
a(lp12176
a(lp12177
a(lp12178
a(lp12179
a(lp12180
a(lp12181
a(lp12182
a(lp12183
a(lp12184
a(lp12185
a(lp12186
a(lp12187
a(lp12188
a(lp12189
a(lp12190
a(lp12191
a(lp12192
a(lp12193
a(lp12194
a(lp12195
a(lp12196
a(lp12197
a(lp12198
a(lp12199
a(lp12200
a(lp12201
a(lp12202
a(lp12203
a(lp12204
a(lp12205
a(lp12206
a(lp12207
a(lp12208
a(lp12209
a(lp12210
a(lp12211
a(lp12212
a(lp12213
a(lp12214
a(lp12215
a(lp12216
a(lp12217
a(lp12218
a(lp12219
a(lp12220
a(lp12221
a(lp12222
a(lp12223
a(lp12224
a(lp12225
a(lp12226
a(lp12227
a(lp12228
a(lp12229
a(lp12230
a(lp12231
a(lp12232
a(lp12233
a(lp12234
a(lp12235
a(lp12236
a(lp12237
a(lp12238
a(lp12239
a(lp12240
a(lp12241
a(lp12242
a(lp12243
a(lp12244
a(lp12245
a(lp12246
a(lp12247
a(lp12248
a(lp12249
a(lp12250
a(lp12251
a(lp12252
a(lp12253
a(lp12254
a(lp12255
a(lp12256
a(lp12257
a(lp12258
a(lp12259
a(lp12260
a(lp12261
a(lp12262
a(lp12263
a(lp12264
a(lp12265
a(lp12266
a(lp12267
a(lp12268
a(lp12269
a(lp12270
a(lp12271
a(lp12272
a(lp12273
a(lp12274
a(lp12275
a(lp12276
a(lp12277
a(lp12278
a(lp12279
a(lp12280
a(lp12281
a(lp12282
a(lp12283
a(lp12284
a(lp12285
a(lp12286
a(lp12287
a(lp12288
a(lp12289
a(lp12290
a(lp12291
a(lp12292
a(lp12293
a(lp12294
a(lp12295
a(lp12296
a.