(lp0
(lp1
I1060
aI55
aI1180
aI566
aI1118
aI464
aI461
aI27
aI816
aI7
aI609
aI292
aI990
aI1311
aI2109
aa(lp2
I287
aI1642
aI103
aI1497
aI530
aI1111
aI1106
aI1109
aI1622
aI1621
aI1616
aI1614
aI1092
aI1090
aI1089
aI1088
aI1087
aI1086
aI1094
aI942
aI1192
aI1194
aI1189
aI1196
aI1451
aI1138
aI584
aI1132
aI1377
aI1378
aI1381
aI1483
aI1632
aI1626
aI1627
aI1625
aI1630
aI1063
aI1062
aI1066
aI1416
aI1414
aI655
aI520
aI518
aI521
aI1646
aI1278
aI1273
aI1276
aI1708
aI1707
aI1679
aI1477
aI760
aI754
aI753
aI756
aI1075
aI1072
aI1071
aI1074
aI1068
aI1067
aI1070
aI1069
aI1427
aI1423
aI1425
aI1424
aI1429
aI510
aI506
aI513
aI1430
aI1667
aI1662
aI1398
aI762
aI767
aI1395
aI1396
aI1370
aI1567
aI1568
aI1045
aI1037
aI1038
aI1040
aI1041
aI1042
aI1044
aI502
aI499
aI949
aI946
aI1147
aI421
aI1689
aI1696
aI1693
aI1698
aI776
aI563
aI1364
aI1582
aI1180
aI576
aI1047
aI1054
aI1053
aI495
aI943
aI937
aI587
aI586
aI1141
aI1445
aI1442
aI1683
aI1682
aI787
aI786
aI737
aI738
aI733
aI1588
aI57
aI1453
aI970
aI969
aI477
aI967
aI592
aI593
aI1123
aI599
aI735
aI1027
aI1024
aI1344
aI1029
aI1030
aI1717
aI1709
aI1712
aI1714
aI855
aI858
aI1459
aI1603
aI1595
aI1598
aI1599
aI1602
aI971
aI706
aI705
aI711
aI964
aI1462
aI956
aI963
aI953
aI968
aI966
aI571
aI573
aI566
aI1126
aI1033
aI1032
aI1329
aI1328
aI1025
aI1021
aI841
aI847
aI1705
aI1704
aI978
aI979
aI981
aI982
aI984
aI985
aI986
aI1562
aI1563
aI1187
aI582
aI579
aI1656
aI1655
aI1209
aI1210
aI1204
aI1205
aI1206
aI1213
aI1151
aI557
aI1007
aI1735
aI1732
aI1005
aI183
aI816
aI815
aI830
aI832
aI972
aI975
aI974
aI973
aI976
aI1547
aI1546
aI1549
aI1551
aI1553
aI1178
aI627
aI301
aI1725
aI1432
aI819
aI817
aI1407
aI1406
aI838
aI609
aI1650
aI722
aI1647
aI718
aI1003
aI1001
aI997
aI1540
aI1542
aI1017
aI1018
aI637
aI1014
aI1298
aI1161
aI895
aI626
aI1659
aI676
aI673
aI671
aI990
aI991
aI1531
aI1008
aI560
aI1236
aI603
aI1404
aI1412
aI326
aI1350
aI1740
aI1519
aI1524
aI551
aI1321
aI1274
aI1243
aI617
aI618
aI1376
aI1379
aI310
aI314
aI933
aI927
aI928
aI935
aI934
aI958
aI1612
aI1288
aI1512
aI1517
aI1607
aI544
aI1120
aI1309
aI1308
aI1312
aI1317
aI687
aI694
aI1252
aI1392
aI1391
aI1387
aI1385
aI550
aI336
aI1333
aI924
aI919
aI920
aI917
aI918
aI1651
aI1657
aI1501
aI1507
aI1508
aI540
aI1104
aI1098
aI1099
aI1096
aI1097
aI682
aI1613
aI1609
aI1611
aI1605
aI1081
aI1083
aI1085
aI1578
aI1254
aI1577
aI745
aI1581
aI1580
aI451
aI1255
aI1256
aI2701
aI2700
aI2703
aI2702
aI2705
aI2704
aI2707
aI2706
aI2709
aI2708
aI2015
aI2017
aI1768
aI1949
aI1946
aI1947
aI1944
aI1945
aI1942
aI1943
aI1940
aI1941
aI2490
aI2493
aI2492
aI2495
aI2499
aI2832
aI2831
aI2830
aI2837
aI2836
aI2835
aI2834
aI2839
aI2838
aI2713
aI2710
aI2711
aI2716
aI2717
aI2714
aI2715
aI2718
aI2719
aI2004
aI2005
aI2002
aI2137
aI1979
aI1972
aI1971
aI1976
aI1974
aI2227
aI2483
aI2486
aI2484
aI2828
aI2829
aI2824
aI2825
aI2826
aI2827
aI2820
aI2821
aI2822
aI2823
aI2729
aI2728
aI2726
aI2724
aI2723
aI2036
aI1965
aI1966
aI1967
aI1963
aI1969
aI2920
aI2924
aI2589
aI2588
aI2851
aI2582
aI2581
aI2855
aI2854
aI2739
aI2730
aI2731
aI2732
aI2733
aI2734
aI2735
aI2736
aI2026
aI2020
aI2029
aI2689
aI2583
aI2853
aI2117
aI2586
aI2207
aI1824
aI1914
aI2594
aI2595
aI2596
aI2597
aI2590
aI2593
aI2598
aI2599
aI2848
aI2842
aI2843
aI2840
aI2841
aI2846
aI2847
aI2844
aI2845
aI2446
aI2448
aI2058
aI2697
aI2696
aI2694
aI2693
aI2691
aI2690
aI2699
aI2698
aI2271
aI1835
aI1831
aI1902
aI1903
aI1904
aI2909
aI2906
aI2905
aI2900
aI2875
aI2874
aI2873
aI2872
aI2871
aI2473
aI2477
aI2476
aI2474
aI2049
aI1798
aI2685
aI2686
aI2687
aI2688
aI1791
aI1938
aI1931
aI1803
aI1804
aI2317
aI1937
aI1936
aI1935
aI1934
aI1933
aI1932
aI2469
aI2464
aI2461
aI1782
aI1788
aI2071
aI2679
aI2674
aI2677
aI2676
aI2671
aI2673
aI2672
aI2789
aI2788
aI2783
aI2782
aI2785
aI2786
aI1928
aI1929
aI2895
aI2894
aI2891
aI2890
aI2893
aI2892
aI2419
aI2418
aI2412
aI2414
aI2525
aI2527
aI2526
aI2523
aI2522
aI2529
aI2528
aI2061
aI2667
aI2665
aI2662
aI2663
aI2660
aI2661
aI2792
aI2793
aI2797
aI2794
aI2795
aI2245
aI2083
aI2815
aI2008
aI2545
aI1866
aI2810
aI2541
aI2540
aI2000
aI2887
aI2882
aI2883
aI2881
aI2402
aI2536
aI2537
aI2534
aI2535
aI2533
aI2530
aI2531
aI2538
aI2539
aI2659
aI2658
aI2651
aI2650
aI2657
aI1872
aI1873
aI1875
aI1878
aI2439
aI2505
aI2504
aI2645
aI2646
aI2647
aI2640
aI2642
aI2643
aI2648
aI2649
aI2300
aI1999
aI1998
aI1991
aI1990
aI1993
aI1994
aI1997
aI1996
aI1846
aI1842
aI2580
aI2587
aI2425
aI2519
aI2510
aI2511
aI2512
aI2631
aI2630
aI2633
aI2635
aI2634
aI2637
aI2636
aI2639
aI2638
aI2749
aI2748
aI2744
aI2747
aI2741
aI2740
aI2743
aI2298
aI1988
aI1989
aI1980
aI1986
aI1987
aI1985
aI1851
aI2569
aI2568
aI2561
aI2560
aI2563
aI2562
aI2565
aI2564
aI2567
aI2566
aI2622
aI2623
aI2626
aI2627
aI2624
aI2625
aI2628
aI2629
aI2758
aI2756
aI2757
aI2755
aI2752
aI2750
aI2751
aI2176
aI2173
aI2178
aI1814
aI1815
aI1816
aI2579
aI2572
aI2573
aI2570
aI2571
aI2576
aI2577
aI2574
aI2575
aI2616
aI2615
aI2613
aI2610
aI2769
aI2768
aI2763
aI2762
aI2761
aI2760
aI2767
aI2766
aI2765
aI2764
aI2382
aI2146
aI2149
aI1899
aI1895
aI1896
aI1892
aI1893
aI2547
aI2816
aI2811
aI2542
aI2813
aI2812
aI2819
aI2818
aI2549
aI2608
aI2609
aI2601
aI2602
aI2606
aI2607
aI2775
aI2777
aI2771
aI2773
aI2778
aI1770
aI2398
aI2399
aI2396
aI2397
aI2395
aI2392
aI1900
aI2158
aI2154
aI2157
aI2150
aI2151
aI2153
aI2303
aI1955
aI1954
aI1957
aI1950
aI1952
aI2807
aI2804
aI2805
aI2802
aI2803
aI2544
aI2543
aI1930
aI2550
aI2551
aI2552
aI2553
aI2554
aI2555
aI2556
aI2557
aI2558
aI2559
aI2809
aa(lp3
I334
aI335
aI261
aI267
aI268
aI1642
aI1049
aI940
aI104
aI94
aI93
aI1491
aI525
aI1106
aI1623
aI1622
aI1619
aI1616
aI1615
aI1614
aI1093
aI1089
aI1086
aI1239
aI1240
aI1155
aI234
aI166
aI1377
aI1380
aI1381
aI1632
aI1630
aI1628
aI1629
aI1061
aI1062
aI650
aI655
aI518
aI1278
aI351
aI369
aI371
aI242
aI243
aI249
aI1707
aI1700
aI1670
aI1679
aI756
aI1636
aI1071
aI1074
aI1068
aI1067
aI1070
aI513
aI1290
aI216
aI145
aI1665
aI1398
aI768
aI1395
aI1371
aI1566
aI1567
aI1568
aI1569
aI1043
aI422
aI229
aI222
aI1693
aI563
aI748
aI1583
aI750
aI1047
aI1054
aI1053
aI1185
aI488
aI941
aI937
aI586
aI199
aI1444
aI1447
aI1688
aI1683
aI737
aI738
aI733
aI1594
aI1588
aI1460
aI1263
aI1456
aI970
aI967
aI1130
aI385
aI735
aI1024
aI1344
aI1717
aI1709
aI1714
aI1604
aI1603
aI1595
aI1597
aI622
aI1599
aI1602
aI1601
aI965
aI962
aI955
aI968
aI569
aI1117
aI1118
aI595
aI1334
aI1033
aI1032
aI445
aI1036
aI1035
aI1335
aI1131
aI465
aI464
aI193
aI190
aI185
aI1023
aI1021
aI1705
aI803
aI409
aI978
aI985
aI986
aI1559
aI1557
aI1652
aI1186
aI1184
aI1208
aI1209
aI1210
aI1211
aI178
aI832
aI728
aI972
aI975
aI973
aI1546
aI1549
aI1550
aI1553
aI1552
aI624
aI1174
aI1220
aI1217
aI300
aI302
aI1719
aI1725
aI819
aI817
aI835
aI1156
aI610
aI609
aI718
aI1537
aI1538
aI1539
aI1016
aI1018
aI1223
aI1393
aI1394
aI1160
aI890
aI1171
aI671
aI621
aI990
aI989
aI1535
aI1530
aI1528
aI1008
aI1294
aI1236
aI1417
aI37
aI603
aI1159
aI1158
aI1412
aI1411
aI325
aI1350
aI1741
aI1740
aI85
aI1522
aI1243
aI440
aI432
aI613
aI1382
aI316
aI317
aI933
aI928
aI934
aI958
aI1612
aI1513
aI1607
aI1308
aI1311
aI696
aI449
aI1392
aI1390
aI1383
aI1385
aI271
aI1600
aI550
aI272
aI254
aI255
aI1198
aI920
aI109
aI1657
aI1499
aI1505
aI1506
aI540
aI1103
aI1613
aI1608
aI1609
aI1610
aI1611
aI1605
aI1606
aI1081
aI1083
aI1084
aI1085
aI1200
aI1438
aI1579
aI1578
aI1254
aI1577
aI1114
aI453
aI2701
aI2700
aI2702
aI2705
aI2707
aI2706
aI2709
aI2708
aI2120
aI1940
aI2237
aI2940
aI2830
aI1867
aI2712
aI2710
aI2711
aI2716
aI2717
aI2714
aI2715
aI2719
aI2827
aI2822
aI2727
aI2726
aI2103
aI2109
aI2921
aI2926
aI2852
aI2731
aI2735
aI2736
aI2737
aI2689
aI2853
aI2112
aI2119
aI2683
aI2931
aI2848
aI2054
aI2057
aI2699
aI2698
aI1839
aI1832
aI1905
aI2874
aI2049
aI1931
aI2264
aI1937
aI1934
aI1933
aI2677
aI2781
aI2780
aI2782
aI2784
aI2250
aI1926
aI1819
aI2892
aI2068
aI2063
aI2064
aI2798
aI2792
aI2790
aI2791
aI2797
aI2794
aI2241
aI2245
aI2248
aI2249
aI2083
aI2089
aI2810
aI2000
aI2882
aI2530
aI2659
aI2650
aI1877
aI1878
aI1999
aI1990
aI1995
aI1846
aI1841
aI2749
aI2748
aI2746
aI2743
aI2742
aI1852
aI2564
aI2758
aI2759
aI2757
aI2754
aI2755
aI2750
aI2751
aI2177
aI2174
aI2173
aI2178
aI1881
aI1880
aI1885
aI1888
aI1815
aI1816
aI1817
aI2573
aI2769
aI2762
aI2761
aI2760
aI2767
aI2766
aI2765
aI2148
aI1899
aI1897
aI1890
aI1892
aI2817
aI2813
aI2818
aI2775
aI2776
aI2777
aI2779
aI2807
aI2804
aI2033
aI2805
aI2802
aI2803
aI2800
aI2550
aI2551
aI2808
aa(lp4
I331
aI288
aI282
aI261
aI265
aI266
aI97
aI102
aI99
aI1124
aI88
aI90
aI92
aI1491
aI1489
aI1496
aI1495
aI1498
aI530
aI529
aI528
aI1111
aI1106
aI1622
aI1615
aI1092
aI1091
aI1089
aI1087
aI1086
aI1094
aI487
aI1192
aI643
aI642
aI645
aI644
aI584
aI393
aI434
aI358
aI378
aI376
aI375
aI380
aI379
aI384
aI237
aI232
aI165
aI1377
aI612
aI1487
aI1488
aI1483
aI1481
aI1057
aI1063
aI1061
aI1062
aI1065
aI651
aI1415
aI1416
aI652
aI514
aI518
aI521
aI399
aI395
aI396
aI1278
aI1273
aI1275
aI1276
aI366
aI368
aI372
aI250
aI244
aI243
aI1708
aI1707
aI162
aI160
aI1479
aI1634
aI1635
aI1075
aI1072
aI1071
aI1074
aI1068
aI1067
aI1070
aI1069
aI1427
aI56
aI51
aI49
aI512
aI52
aI510
aI508
aI506
aI513
aI1290
aI407
aI410
aI214
aI146
aI149
aI762
aI765
aI767
aI1395
aI1566
aI1567
aI1568
aI1569
aI1571
aI1572
aI1574
aI1045
aI1037
aI1041
aI1042
aI501
aI503
aI499
aI949
aI950
aI946
aI1147
aI1143
aI419
aI420
aI418
aI229
aI1
aI138
aI136
aI1689
aI1690
aI1694
aI871
aI563
aI1364
aI1363
aI1365
aI1583
aI576
aI1048
aI1047
aI1054
aI1053
aI1052
aI496
aI488
aI937
aI587
aI586
aI10
aI14
aI13
aI15
aI18
aI1444
aI1442
aI1447
aI1688
aI1683
aI861
aI862
aI865
aI866
aI1593
aI1594
aI1591
aI1589
aI1588
aI1586
aI1264
aI1453
aI1458
aI970
aI389
aI485
aI967
aI593
aI1123
aI597
aI598
aI1130
aI1024
aI1022
aI740
aI211
aI208
aI204
aI213
aI443
aI4
aI1712
aI860
aI851
aI791
aI790
aI1603
aI707
aI711
aI709
aI1469
aI1463
aI962
aI956
aI968
aI961
aI960
aI478
aI571
aI573
aI572
aI566
aI569
aI1117
aI1122
aI1116
aI594
aI596
aI1335
aI189
aI187
aI1028
aI1025
aI1023
aI1021
aI844
aI1701
aI1704
aI803
aI979
aI981
aI982
aI984
aI985
aI987
aI1558
aI1559
aI1556
aI1557
aI1565
aI1179
aI1184
aI579
aI1353
aI1213
aI471
aI468
aI23
aI22
aI1151
aI429
aI1006
aI1005
aI909
aI180
aI179
aI814
aI828
aI832
aI728
aI726
aI732
aI972
aI975
aI974
aI973
aI1547
aI629
aI628
aI627
aI625
aI7
aI303
aI1720
aI1722
aI1725
aI1727
aI1432
aI819
aI1408
aI817
aI835
aI836
aI839
aI610
aI609
aI1650
aI722
aI720
aI718
aI1002
aI997
aI1540
aI1542
aI1543
aI1017
aI1018
aI637
aI638
aI634
aI636
aI630
aI632
aI1393
aI1161
aI1401
aI893
aI455
aI626
aI1171
aI676
aI675
aI672
aI667
aI988
aI990
aI989
aI991
aI1534
aI1533
aI1530
aI558
aI1004
aI426
aI424
aI430
aI31
aI30
aI34
aI1410
aI603
aI1412
aI1350
aI1247
aI886
aI128
aI132
aI130
aI129
aI134
aI665
aI666
aI661
aI657
aI660
aI78
aI1521
aI551
aI1319
aI440
aI1241
aI618
aI619
aI316
aI1464
aI1470
aI931
aI930
aI933
aI928
aI935
aI958
aI120
aI1612
aI1511
aI1518
aI549
aI545
aI544
aI543
aI1311
aI1313
aI1317
aI688
aI690
aI693
aI444
aI574
aI1391
aI1387
aI1384
aI1383
aI1385
aI271
aI550
aI336
aI273
aI1034
aI924
aI920
aI111
aI108
aI1501
aI1502
aI1505
aI1507
aI540
aI532
aI536
aI537
aI1104
aI1102
aI1098
aI1099
aI683
aI684
aI682
aI1081
aI1083
aI1078
aI1084
aI1085
aI43
aI41
aI40
aI1437
aI1439
aI1579
aI1254
aI1114
aI1261
aI1262
aI2129
aI2120
aI1945
aI1940
aI3051
aI1867
aI1751
aI2139
aI2130
aI2131
aI2136
aI2134
aI1746
aI2106
aI2103
aI2102
aI2101
aI2115
aI2117
aI2584
aI1824
aI1826
aI1823
aI3085
aI3086
aI1911
aI1910
aI2595
aI2059
aI1836
aI3092
aI3093
aI1903
aI1907
aI1904
aI2873
aI1794
aI1939
aI1938
aI1808
aI1802
aI1937
aI1936
aI1935
aI1932
aI2071
aI2092
aI1928
aI1926
aI1818
aI2526
aI2663
aI2085
aI2546
aI1861
aI1863
aI1868
aI2540
aI2536
aI2537
aI2534
aI2535
aI2532
aI2533
aI2531
aI2539
aI2650
aI1872
aI1873
aI1876
aI1874
aI2072
aI2647
aI2648
aI2300
aI1992
aI1848
aI3005
aI2587
aI2299
aI1852
aI1887
aI1885
aI1889
aI1888
aI1814
aI1815
aI1816
aI1817
aI1812
aI1813
aI2610
aI2143
aI2141
aI2147
aI2146
aI2144
aI2149
aI1898
aI1894
aI1895
aI1890
aI1891
aI3039
aI2548
aI2601
aI2154
aI2150
aI2151
aI2153
aI2302
aI2544
aI3043
aI2554
aI2555
aI2559
aa.