(lp0
(lp1
I525
aI384
aI768
aI194
aI466
aI461
aI190
aI27
aI7
aI609
aI554
aI1515
aI1311
aI449
aa(lp2
I604
aI1642
aI1491
aI1496
aI1498
aI1497
aI529
aI1111
aI1106
aI1110
aI1109
aI1623
aI1622
aI1621
aI1620
aI1615
aI1614
aI1093
aI1092
aI1091
aI1090
aI1088
aI1086
aI1094
aI1190
aI1197
aI1451
aI1138
aI584
aI1133
aI1271
aI1239
aI360
aI1154
aI380
aI166
aI1377
aI1380
aI1381
aI1260
aI1483
aI1632
aI1626
aI1630
aI1063
aI1061
aI1062
aI1065
aI1066
aI1416
aI1414
aI655
aI1421
aI1422
aI520
aI518
aI521
aI1646
aI399
aI1278
aI1273
aI1276
aI1708
aI1707
aI1677
aI1670
aI1679
aI1477
aI760
aI754
aI753
aI756
aI1075
aI1072
aI1071
aI1074
aI1073
aI1068
aI1067
aI1070
aI1427
aI1423
aI1425
aI1429
aI1431
aI52
aI510
aI506
aI513
aI1290
aI1079
aI1662
aI1668
aI762
aI767
aI1395
aI1368
aI1370
aI1568
aI1569
aI1037
aI1038
aI1039
aI1042
aI1043
aI1044
aI499
aI949
aI946
aI421
aI419
aI418
aI1696
aI1698
aI563
aI749
aI748
aI747
aI743
aI1585
aI1050
aI1047
aI1054
aI1053
aI1052
aI496
aI495
aI943
aI587
aI586
aI1445
aI1442
aI1446
aI1688
aI1685
aI1683
aI1682
aI869
aI861
aI789
aI737
aI738
aI1594
aI1452
aI1453
aI970
aI486
aI969
aI967
aI592
aI593
aI599
aI735
aI1027
aI1024
aI1022
aI1344
aI1029
aI1709
aI1714
aI855
aI852
aI1603
aI1599
aI1602
aI708
aI706
aI711
aI709
aI1463
aI1471
aI956
aI963
aI953
aI968
aI571
aI573
aI1117
aI1122
aI595
aI1126
aI1329
aI1035
aI1131
aI1023
aI1021
aI841
aI847
aI1704
aI803
aI978
aI979
aI981
aI982
aI983
aI984
aI985
aI986
aI987
aI1562
aI1187
aI582
aI579
aI1209
aI1205
aI1206
aI1212
aI1213
aI475
aI1151
aI1735
aI1732
aI907
aI183
aI816
aI815
aI830
aI729
aI972
aI975
aI974
aI973
aI1547
aI1549
aI1551
aI1553
aI1178
aI627
aI625
aI1175
aI1352
aI7
aI945
aI1727
aI904
aI1432
aI822
aI819
aI817
aI1406
aI836
aI610
aI609
aI722
aI1409
aI718
aI997
aI1540
aI1542
aI1017
aI1018
aI1020
aI1298
aI1305
aI1222
aI1397
aI1167
aI1393
aI1161
aI1401
aI1169
aI896
aI626
aI673
aI671
aI990
aI989
aI991
aI1008
aI560
aI565
aI1295
aI1294
aI1236
aI1410
aI603
aI1404
aI1412
aI1350
aI1741
aI1740
aI1519
aI1525
aI1526
aI1324
aI1321
aI1318
aI1170
aI1241
aI617
aI618
aI1376
aI1379
aI315
aI1237
aI933
aI927
aI928
aI934
aI958
aI1612
aI1509
aI1512
aI1518
aI1517
aI1607
aI544
aI1308
aI1312
aI1317
aI694
aI693
aI1252
aI1246
aI1387
aI1390
aI1389
aI550
aI336
aI1333
aI924
aI919
aI920
aI917
aI918
aI1657
aI1501
aI1506
aI1507
aI540
aI1104
aI1105
aI1102
aI1099
aI1097
aI682
aI1613
aI1609
aI1611
aI1605
aI1081
aI1085
aI1436
aI1439
aI1254
aI1577
aI745
aI1581
aI1114
aI1580
aI451
aI2701
aI2700
aI2703
aI2702
aI2705
aI2704
aI2707
aI2706
aI2709
aI2708
aI2018
aI2012
aI1949
aI1946
aI1947
aI1944
aI1945
aI1943
aI1940
aI1941
aI2940
aI2493
aI2492
aI2495
aI2499
aI2833
aI2832
aI2831
aI2830
aI2837
aI2836
aI2835
aI2834
aI2839
aI2838
aI2712
aI2713
aI2710
aI2711
aI2716
aI2717
aI2714
aI2715
aI2718
aI2719
aI2007
aI2004
aI2005
aI2137
aI1979
aI1972
aI1971
aI1970
aI1976
aI1975
aI2480
aI2481
aI2484
aI2828
aI2829
aI2824
aI2825
aI2826
aI2827
aI2820
aI2821
aI2822
aI2823
aI2729
aI2728
aI2726
aI2724
aI2723
aI2721
aI2036
aI2034
aI2105
aI1965
aI1967
aI1961
aI1968
aI1969
aI2925
aI2588
aI2851
aI2582
aI2581
aI2852
aI2855
aI2854
aI2585
aI2459
aI2738
aI2739
aI2730
aI2731
aI2732
aI2733
aI2734
aI2026
aI2027
aI2028
aI2029
aI1793
aI2689
aI2583
aI2850
aI2853
aI2117
aI2586
aI2857
aI2584
aI1824
aI1821
aI1911
aI1913
aI1914
aI2933
aI1865
aI2594
aI2595
aI2596
aI2590
aI2591
aI2592
aI2598
aI2599
aI2848
aI2849
aI2842
aI2843
aI2841
aI2846
aI2847
aI2844
aI2845
aI2697
aI2696
aI2695
aI2694
aI2693
aI2692
aI2699
aI2270
aI1836
aI1834
aI1902
aI1904
aI2905
aI2900
aI2876
aI2875
aI2874
aI2873
aI2872
aI2871
aI2870
aI2879
aI2473
aI2472
aI2470
aI2474
aI2478
aI2040
aI2049
aI2682
aI2684
aI2685
aI2686
aI2687
aI1794
aI1939
aI1938
aI1931
aI2265
aI1801
aI1806
aI1937
aI1936
aI1935
aI1934
aI1933
aI2919
aI2862
aI2863
aI2469
aI2461
aI2071
aI2679
aI2675
aI2674
aI2677
aI2676
aI2671
aI2670
aI2672
aI2789
aI2781
aI2780
aI2783
aI2782
aI2787
aI2786
aI1928
aI1929
aI1926
aI1818
aI2895
aI2894
aI2896
aI2891
aI2893
aI2892
aI2414
aI2525
aI2527
aI2526
aI2521
aI2523
aI2522
aI2529
aI2528
aI2068
aI2069
aI2668
aI2667
aI2664
aI2665
aI2662
aI2660
aI2661
aI2798
aI2792
aI2793
aI2796
aI2797
aI2794
aI2795
aI2245
aI2248
aI2086
aI2815
aI2008
aI2545
aI1861
aI1869
aI2810
aI2541
aI2540
aI2000
aI2888
aI2889
aI2887
aI2884
aI2882
aI2883
aI2409
aI2402
aI2537
aI2534
aI2535
aI2532
aI2533
aI2530
aI2531
aI2538
aI2539
aI2658
aI2653
aI2652
aI2651
aI2650
aI2654
aI1870
aI1877
aI1875
aI1878
aI2439
aI2504
aI2645
aI2646
aI2640
aI2642
aI2643
aI2648
aI1999
aI1991
aI1990
aI1993
aI1992
aI1994
aI1997
aI1996
aI1848
aI1842
aI1840
aI3006
aI2580
aI2587
aI2519
aI2511
aI2512
aI2630
aI2633
aI2632
aI2635
aI2634
aI2637
aI2636
aI2639
aI2185
aI2749
aI2748
aI2744
aI2747
aI2746
aI2741
aI2740
aI2743
aI2742
aI2298
aI2393
aI1989
aI1982
aI1986
aI1987
aI1851
aI2569
aI2568
aI2561
aI2560
aI2563
aI2562
aI2565
aI2564
aI2567
aI2566
aI2622
aI2620
aI2625
aI2628
aI2758
aI2756
aI2757
aI2754
aI2755
aI2752
aI2753
aI2750
aI2751
aI2177
aI2178
aI1882
aI1884
aI1889
aI1814
aI1815
aI1816
aI1817
aI2579
aI2572
aI2573
aI2570
aI2571
aI2576
aI2577
aI2574
aI2619
aI2618
aI2616
aI2615
aI2614
aI2613
aI2611
aI2610
aI2769
aI2768
aI2762
aI2761
aI2760
aI2767
aI2766
aI2765
aI2382
aI2144
aI2149
aI2148
aI1898
aI1899
aI1895
aI1896
aI1891
aI1892
aI1893
aI2547
aI2814
aI2817
aI2816
aI2811
aI2542
aI2813
aI2812
aI2819
aI2818
aI2609
aI2605
aI2606
aI2607
aI2774
aI2775
aI2777
aI2770
aI2771
aI2772
aI2778
aI2779
aI1770
aI1772
aI2399
aI2397
aI2395
aI2392
aI2154
aI2156
aI2157
aI2150
aI2151
aI2153
aI1959
aI2303
aI1955
aI1957
aI1951
aI1950
aI1953
aI1952
aI2806
aI2807
aI2804
aI2805
aI2802
aI2803
aI2800
aI2544
aI2543
aI1930
aI2550
aI2551
aI2552
aI2554
aI2555
aI2556
aI2558
aI2559
aI2808
aI2809
aa(lp3
I267
aI1642
aI1491
aI1498
aI1106
aI1623
aI1622
aI1619
aI1618
aI1617
aI1616
aI1615
aI1614
aI1087
aI1094
aI1135
aI392
aI1265
aI1267
aI1271
aI1155
aI170
aI1377
aI1380
aI1381
aI1632
aI1627
aI1630
aI1631
aI1628
aI1061
aI1062
aI1066
aI650
aI1416
aI520
aI1646
aI1277
aI351
aI371
aI250
aI249
aI247
aI1700
aI1676
aI1670
aI1671
aI1678
aI1679
aI1472
aI753
aI1635
aI1640
aI1074
aI1068
aI1070
aI1069
aI1429
aI1290
aI407
aI1284
aI1665
aI1662
aI1668
aI1398
aI767
aI768
aI1370
aI1371
aI1567
aI1568
aI1570
aI1038
aI1042
aI946
aI1147
aI1149
aI419
aI230
aI223
aI1689
aI1693
aI1694
aI1697
aI878
aI776
aI746
aI742
aI1055
aI1054
aI1053
aI586
aI197
aI199
aI1446
aI1683
aI1682
aI782
aI789
aI739
aI1594
aI1588
aI66
aI1264
aI1460
aI970
aI479
aI598
aI385
aI1342
aI1344
aI210
aI1714
aI855
aI1604
aI1603
aI1595
aI622
aI1599
aI1602
aI1601
aI971
aI705
aI965
aI962
aI956
aI963
aI955
aI968
aI570
aI567
aI569
aI568
aI595
aI1334
aI1031
aI1033
aI1032
aI1328
aI445
aI464
aI461
aI192
aI189
aI185
aI1023
aI1704
aI704
aI978
aI979
aI985
aI1559
aI1652
aI1565
aI1184
aI1208
aI1209
aI1211
aI1213
aI468
aI1151
aI1732
aI178
aI816
aI832
aI729
aI728
aI69
aI972
aI975
aI973
aI977
aI1546
aI1549
aI1553
aI1552
aI1174
aI1217
aI300
aI1232
aI1725
aI819
aI817
aI1156
aI609
aI999
aI997
aI1538
aI1539
aI1016
aI1017
aI1014
aI1223
aI1224
aI1228
aI1393
aI1394
aI1160
aI295
aI990
aI989
aI1535
aI1528
aI1009
aI1236
aI1410
aI1150
aI603
aI1412
aI1411
aI325
aI1350
aI1741
aI1740
aI85
aI1527
aI1522
aI1170
aI1243
aI432
aI1382
aI313
aI317
aI928
aI935
aI934
aI121
aI1612
aI1509
aI1511
aI1287
aI1607
aI1162
aI549
aI1308
aI1313
aI1316
aI449
aI1390
aI1383
aI1385
aI271
aI1600
aI272
aI1034
aI254
aI920
aI917
aI918
aI1657
aI1506
aI1613
aI1608
aI1609
aI1611
aI1605
aI1606
aI1083
aI1085
aI1200
aI1579
aI452
aI1578
aI1114
aI1259
aI453
aI457
aI1261
aI2701
aI2700
aI2703
aI2705
aI2704
aI2707
aI2706
aI2709
aI2708
aI2014
aI2121
aI2120
aI1946
aI1944
aI1941
aI2234
aI2830
aI2837
aI2836
aI1867
aI2712
aI2710
aI2711
aI2716
aI2714
aI2715
aI2824
aI2827
aI2821
aI2729
aI2728
aI2727
aI2726
aI2724
aI2723
aI2036
aI2109
aI2921
aI2585
aI2738
aI2731
aI2736
aI2113
aI2116
aI3089
aI1911
aI1910
aI1912
aI2931
aI2843
aI2846
aI2057
aI2697
aI2699
aI2698
aI1832
aI1830
aI1831
aI1939
aI1931
aI2267
aI1937
aI1935
aI1933
aI2789
aI2781
aI2780
aI2783
aI2785
aI2784
aI2250
aI1926
aI1818
aI1819
aI2799
aI2793
aI2791
aI2796
aI2797
aI2794
aI2241
aI2245
aI2248
aI2083
aI2810
aI2000
aI2889
aI2880
aI2534
aI2650
aI1870
aI1875
aI1878
aI2072
aI1998
aI1991
aI1990
aI1992
aI1995
aI1997
aI1848
aI1841
aI2749
aI2748
aI2745
aI2747
aI2743
aI2742
aI2564
aI2758
aI2759
aI2756
aI2757
aI2754
aI2755
aI2750
aI2751
aI2177
aI2173
aI2178
aI1881
aI1888
aI1814
aI1815
aI2574
aI2769
aI2762
aI2761
aI2767
aI2766
aI2764
aI1898
aI1890
aI1891
aI2816
aI2812
aI2818
aI2774
aI2775
aI2776
aI2777
aI1955
aI2806
aI2805
aI2802
aI2803
aI2800
aI1930
aI2808
aa(lp4
I604
aI334
aI282
aI265
aI267
aI97
aI98
aI90
aI92
aI1489
aI1496
aI1495
aI1494
aI1498
aI530
aI529
aI528
aI1111
aI1106
aI1622
aI1618
aI1093
aI1092
aI1091
aI1089
aI1088
aI1087
aI1086
aI1095
aI1192
aI1195
aI1189
aI1450
aI645
aI641
aI584
aI1132
aI393
aI358
aI361
aI378
aI376
aI382
aI235
aI173
aI170
aI612
aI1487
aI1063
aI1061
aI1062
aI1065
aI1066
aI651
aI1415
aI656
aI514
aI520
aI518
aI519
aI521
aI395
aI396
aI397
aI1278
aI1276
aI367
aI373
aI249
aI1708
aI1707
aI160
aI1699
aI631
aI1479
aI1474
aI1636
aI1075
aI1072
aI1071
aI1074
aI1068
aI1070
aI1069
aI56
aI512
aI510
aI508
aI506
aI1290
aI405
aI218
aI214
aI147
aI149
aI148
aI1664
aI767
aI1567
aI1574
aI1037
aI503
aI499
aI950
aI419
aI420
aI418
aI230
aI222
aI225
aI1
aI140
aI136
aI1689
aI1696
aI1694
aI1697
aI878
aI563
aI1364
aI1363
aI1365
aI748
aI1583
aI1180
aI576
aI1047
aI1053
aI1052
aI488
aI490
aI937
aI1137
aI587
aI1141
aI13
aI18
aI203
aI1442
aI1688
aI1683
aI1682
aI868
aI862
aI865
aI866
aI1591
aI1589
aI1588
aI1586
aI57
aI61
aI64
aI66
aI1458
aI485
aI388
aI969
aI477
aI967
aI593
aI1123
aI1027
aI1024
aI1344
aI1030
aI211
aI443
aI4
aI860
aI859
aI858
aI852
aI791
aI1459
aI622
aI971
aI707
aI711
aI712
aI964
aI1469
aI1463
aI1465
aI965
aI956
aI963
aI955
aI954
aI968
aI961
aI480
aI478
aI573
aI572
aI567
aI1117
aI1116
aI594
aI1335
aI467
aI462
aI187
aI1028
aI1025
aI1023
aI1021
aI844
aI847
aI1704
aI803
aI979
aI982
aI985
aI986
aI987
aI1559
aI1556
aI1557
aI1565
aI581
aI579
aI1213
aI471
aI472
aI1006
aI909
aI908
aI176
aI180
aI179
aI183
aI815
aI828
aI832
aI728
aI727
aI726
aI732
aI69
aI75
aI972
aI975
aI973
aI977
aI976
aI1551
aI1555
aI629
aI627
aI7
aI1347
aI1349
aI1348
aI1220
aI301
aI299
aI305
aI1725
aI1727
aI903
aI904
aI898
aI1432
aI817
aI834
aI835
aI836
aI839
aI1156
aI1650
aI722
aI723
aI718
aI1002
aI1001
aI1540
aI1537
aI1017
aI1018
aI637
aI638
aI635
aI630
aI1020
aI632
aI1223
aI1393
aI1402
aI292
aI294
aI626
aI1171
aI676
aI675
aI672
aI671
aI669
aI668
aI667
aI990
aI989
aI1536
aI1533
aI1530
aI1008
aI560
aI1004
aI424
aI31
aI29
aI34
aI1410
aI603
aI319
aI1740
aI885
aI881
aI126
aI131
aI134
aI665
aI661
aI664
aI657
aI658
aI659
aI660
aI77
aI1526
aI1523
aI551
aI1243
aI433
aI1238
aI1241
aI611
aI1379
aI619
aI315
aI1464
aI1470
aI930
aI933
aI928
aI934
aI958
aI121
aI122
aI1514
aI1510
aI1511
aI1518
aI549
aI544
aI542
aI1311
aI1317
aI688
aI690
aI694
aI693
aI696
aI446
aI448
aI1391
aI1383
aI1385
aI1600
aI550
aI337
aI336
aI1333
aI275
aI924
aI917
aI918
aI111
aI106
aI1657
aI1501
aI1503
aI1505
aI540
aI532
aI536
aI537
aI1104
aI1096
aI683
aI684
aI682
aI677
aI1611
aI1081
aI1083
aI601
aI1084
aI1085
aI45
aI43
aI40
aI1579
aI1114
aI1580
aI1261
aI2709
aI1763
aI2129
aI1946
aI1947
aI1945
aI1943
aI1940
aI1867
aI2710
aI2139
aI2130
aI2131
aI2136
aI1746
aI2103
aI2102
aI2109
aI2585
aI2115
aI1824
aI1821
aI1823
aI3089
aI3085
aI3086
aI1911
aI1910
aI2595
aI2598
aI1836
aI1832
aI3092
aI3093
aI3091
aI1902
aI1907
aI1904
aI1796
aI1794
aI1939
aI1938
aI1802
aI1936
aI1932
aI2074
aI2675
aI1928
aI1929
aI2523
aI2068
aI2668
aI2669
aI2661
aI2085
aI2545
aI1861
aI1863
aI1866
aI1868
aI2540
aI2536
aI2537
aI2534
aI2532
aI2531
aI2650
aI1872
aI1870
aI1871
aI1877
aI1874
aI1878
aI2072
aI2648
aI3005
aI2580
aI2299
aI1853
aI2561
aI2627
aI1881
aI1880
aI1885
aI1889
aI1888
aI3026
aI3025
aI1815
aI1816
aI1811
aI1813
aI2610
aI2143
aI2141
aI2147
aI2146
aI2149
aI2148
aI1898
aI1899
aI1894
aI1895
aI1897
aI1890
aI3038
aI3030
aI2548
aI2601
aI2392
aI2159
aI2151
aI2303
aI3042
aI2543
aI1930
aI2554
aI2555
aI2556
aI2559
aa.