(lp0
(lp1
S'1143'
p2
aS'58'
p3
aS'1271'
p4
aS'600'
p5
aS'1206'
p6
aS'486'
p7
aS'483'
p8
aS'29'
p9
aS'869'
p10
aS'8'
p11
aS'648'
p12
aS'303'
p13
aS'1063'
p14
aS'1423'
p15
aS'12109'
p16
aa(lp17
S'297'
p18
aS'1780'
p19
aS'108'
p20
aS'1628'
p21
aS'558'
p22
aS'1198'
p23
aS'1193'
p24
aS'1196'
p25
aS'1758'
p26
aS'1757'
p27
aS'1752'
p28
aS'1750'
p29
aS'1176'
p30
aS'1174'
p31
aS'1173'
p32
aS'1172'
p33
aS'1171'
p34
aS'1170'
p35
aS'1178'
p36
aS'1007'
p37
aS'1284'
p38
aS'1286'
p39
aS'1281'
p40
aS'1288'
p41
aS'1579'
p42
aS'1226'
p43
aS'621'
p44
aS'1220'
p45
aS'1502'
p46
aS'1503'
p47
aS'1507'
p48
aS'1613'
p49
aS'1768'
p50
aS'1762'
p51
aS'1763'
p52
aS'1761'
p53
aS'1766'
p54
aS'1146'
p55
aS'1145'
p56
aS'1149'
p57
aS'1543'
p58
aS'1541'
p59
aS'698'
p60
aS'547'
p61
aS'544'
p62
aS'548'
p63
aS'1784'
p64
aS'1386'
p65
aS'1380'
p66
aS'1383'
p67
aS'1849'
p68
aS'1848'
p69
aS'1819'
p70
aS'1607'
p71
aS'808'
p72
aS'802'
p73
aS'801'
p74
aS'804'
p75
aS'1158'
p76
aS'1155'
p77
aS'1154'
p78
aS'1157'
p79
aS'1151'
p80
aS'1150'
p81
aS'1153'
p82
aS'1152'
p83
aS'1555'
p84
aS'1551'
p85
aS'1553'
p86
aS'1552'
p87
aS'1557'
p88
aS'535'
p89
aS'531'
p90
aS'539'
p91
aS'1558'
p92
aS'1807'
p93
aS'1801'
p94
aS'1525'
p95
aS'811'
p96
aS'816'
p97
aS'1522'
p98
aS'1523'
p99
aS'1493'
p100
aS'1701'
p101
aS'1702'
p102
aS'1128'
p103
aS'1120'
p104
aS'1121'
p105
aS'1123'
p106
aS'1124'
p107
aS'1125'
p108
aS'1127'
p109
aS'526'
p110
aS'522'
p111
aS'1015'
p112
aS'1012'
p113
aS'1237'
p114
aS'438'
p115
aS'1830'
p116
aS'1837'
p117
aS'1834'
p118
aS'1839'
p119
aS'825'
p120
aS'597'
p121
aS'1487'
p122
aS'1716'
p123
ag4
aS'610'
p124
aS'1130'
p125
aS'1137'
p126
aS'1136'
p127
aS'518'
p128
aS'1008'
p129
aS'1001'
p130
aS'625'
p131
aS'624'
p132
aS'1229'
p133
aS'1573'
p134
aS'1570'
p135
aS'1823'
p136
aS'1822'
p137
aS'836'
p138
aS'835'
p139
aS'784'
p140
aS'785'
p141
aS'780'
p142
aS'1723'
p143
aS'60'
p144
aS'1581'
p145
aS'1038'
p146
aS'1037'
p147
aS'500'
p148
aS'1035'
p149
aS'631'
p150
aS'632'
p151
aS'1211'
p152
aS'638'
p153
aS'782'
p154
aS'1106'
p155
aS'1103'
p156
aS'1458'
p157
aS'1108'
p158
aS'1109'
p159
aS'1859'
p160
aS'1850'
p161
aS'1854'
p162
aS'1856'
p163
aS'914'
p164
aS'917'
p165
aS'1587'
p166
aS'1738'
p167
aS'1730'
p168
aS'1733'
p169
aS'1734'
p170
aS'1737'
p171
aS'1039'
p172
aS'751'
p173
aS'750'
p174
aS'757'
p175
aS'1032'
p176
aS'1590'
p177
aS'1024'
p178
aS'1031'
p179
aS'1020'
p180
aS'1036'
p181
aS'1034'
p182
aS'605'
p183
aS'607'
p184
ag5
aS'1214'
p185
aS'1113'
p186
aS'1112'
p187
aS'1442'
p188
aS'1441'
p189
aS'1104'
p190
aS'1100'
p191
aS'900'
p192
aS'906'
p193
aS'1846'
p194
aS'1845'
p195
aS'1050'
p196
aS'1051'
p197
aS'1053'
p198
aS'1054'
p199
aS'1056'
p200
aS'1057'
p201
aS'1058'
p202
aS'1696'
p203
aS'1697'
p204
aS'1279'
p205
aS'618'
p206
aS'615'
p207
aS'1795'
p208
aS'1794'
p209
aS'1305'
p210
aS'1306'
p211
aS'1300'
p212
aS'1301'
p213
aS'1302'
p214
aS'1309'
p215
aS'1241'
p216
aS'591'
p217
aS'1085'
p218
aS'1877'
p219
aS'1874'
p220
aS'1083'
p221
aS'189'
p222
ag10
aS'868'
p223
aS'886'
p224
aS'888'
p225
aS'1040'
p226
aS'1047'
p227
aS'1046'
p228
aS'1045'
p229
aS'1048'
p230
aS'1681'
p231
aS'1680'
p232
aS'1683'
p233
aS'1685'
p234
aS'1687'
p235
aS'1269'
p236
aS'667'
p237
aS'313'
p238
aS'1867'
p239
aS'1560'
p240
aS'872'
p241
aS'870'
p242
aS'1534'
p243
aS'1533'
p244
aS'897'
p245
ag12
aS'1789'
p246
aS'768'
p247
aS'1785'
p248
aS'764'
p249
aS'1079'
p250
aS'1077'
p251
aS'1072'
p252
aS'1674'
p253
aS'1676'
p254
aS'1096'
p255
aS'1097'
p256
aS'678'
p257
aS'1092'
p258
aS'1410'
p259
aS'1251'
p260
aS'958'
p261
aS'666'
p262
aS'1798'
p263
aS'719'
p264
aS'716'
p265
aS'714'
p266
ag14
aS'1064'
p267
aS'1663'
p268
aS'1086'
p269
aS'594'
p270
aS'1339'
p271
aS'642'
p272
aS'1531'
p273
aS'1539'
p274
aS'339'
p275
aS'1464'
p276
aS'1882'
p277
aS'1650'
p278
aS'1655'
p279
aS'583'
p280
aS'1434'
p281
aS'1381'
p282
aS'1349'
p283
aS'656'
p284
aS'657'
p285
aS'1501'
p286
aS'1505'
p287
aS'322'
p288
aS'326'
p289
aS'997'
p290
aS'991'
p291
aS'992'
p292
aS'999'
p293
aS'998'
p294
aS'1026'
p295
aS'1748'
p296
aS'1397'
p297
aS'1643'
p298
aS'1648'
p299
aS'1743'
p300
aS'572'
p301
aS'1208'
p302
aS'1421'
p303
aS'1420'
p304
aS'1424'
p305
aS'1429'
p306
aS'730'
p307
aS'737'
p308
aS'1359'
p309
aS'1519'
p310
aS'1518'
p311
aS'1514'
p312
aS'1512'
p313
aS'582'
p314
aS'350'
p315
aS'1446'
p316
aS'988'
p317
aS'982'
p318
aS'983'
p319
aS'980'
p320
aS'981'
p321
aS'1790'
p322
aS'1796'
p323
aS'1632'
p324
aS'1638'
p325
aS'1639'
p326
aS'568'
p327
aS'1188'
p328
aS'1182'
p329
aS'1183'
p330
aS'1180'
p331
aS'1181'
p332
aS'725'
p333
aS'1749'
p334
aS'1745'
p335
aS'1747'
p336
aS'1740'
p337
aS'1164'
p338
aS'1166'
p339
aS'1169'
p340
aS'1712'
p341
aS'1361'
p342
aS'1711'
p343
aS'793'
p344
aS'1715'
p345
aS'1714'
p346
aS'473'
p347
aS'1362'
p348
aS'1363'
p349
aS'12701'
p350
aS'12700'
p351
aS'12703'
p352
aS'12702'
p353
aS'12705'
p354
aS'12704'
p355
aS'12707'
p356
aS'12706'
p357
aS'12709'
p358
aS'12708'
p359
aS'12015'
p360
aS'12017'
p361
aS'11768'
p362
aS'11949'
p363
aS'11946'
p364
aS'11947'
p365
aS'11944'
p366
aS'11945'
p367
aS'11942'
p368
aS'11943'
p369
aS'11940'
p370
aS'11941'
p371
aS'12490'
p372
aS'12493'
p373
aS'12492'
p374
aS'12495'
p375
aS'12499'
p376
aS'12832'
p377
aS'12831'
p378
aS'12830'
p379
aS'12837'
p380
aS'12836'
p381
aS'12835'
p382
aS'12834'
p383
aS'12839'
p384
aS'12838'
p385
aS'12713'
p386
aS'12710'
p387
aS'12711'
p388
aS'12716'
p389
aS'12717'
p390
aS'12714'
p391
aS'12715'
p392
aS'12718'
p393
aS'12719'
p394
aS'12004'
p395
aS'12005'
p396
aS'12002'
p397
aS'12137'
p398
aS'11979'
p399
aS'11972'
p400
aS'11971'
p401
aS'11976'
p402
aS'11974'
p403
aS'12227'
p404
aS'12483'
p405
aS'12486'
p406
aS'12484'
p407
aS'12828'
p408
aS'12829'
p409
aS'12824'
p410
aS'12825'
p411
aS'12826'
p412
aS'12827'
p413
aS'12820'
p414
aS'12821'
p415
aS'12822'
p416
aS'12823'
p417
aS'12729'
p418
aS'12728'
p419
aS'12726'
p420
aS'12724'
p421
aS'12723'
p422
aS'12036'
p423
aS'11965'
p424
aS'11966'
p425
aS'11967'
p426
aS'11963'
p427
aS'11969'
p428
aS'12920'
p429
aS'12924'
p430
aS'12589'
p431
aS'12588'
p432
aS'12851'
p433
aS'12582'
p434
aS'12581'
p435
aS'12855'
p436
aS'12854'
p437
aS'12739'
p438
aS'12730'
p439
aS'12731'
p440
aS'12732'
p441
aS'12733'
p442
aS'12734'
p443
aS'12735'
p444
aS'12736'
p445
aS'12026'
p446
aS'12020'
p447
aS'12029'
p448
aS'12689'
p449
aS'12583'
p450
aS'12853'
p451
aS'12117'
p452
aS'12586'
p453
aS'12207'
p454
aS'11824'
p455
aS'11914'
p456
aS'12594'
p457
aS'12595'
p458
aS'12596'
p459
aS'12597'
p460
aS'12590'
p461
aS'12593'
p462
aS'12598'
p463
aS'12599'
p464
aS'12848'
p465
aS'12842'
p466
aS'12843'
p467
aS'12840'
p468
aS'12841'
p469
aS'12846'
p470
aS'12847'
p471
aS'12844'
p472
aS'12845'
p473
aS'12446'
p474
aS'12448'
p475
aS'12058'
p476
aS'12697'
p477
aS'12696'
p478
aS'12694'
p479
aS'12693'
p480
aS'12691'
p481
aS'12690'
p482
aS'12699'
p483
aS'12698'
p484
aS'12271'
p485
aS'11835'
p486
aS'11831'
p487
aS'11902'
p488
aS'11903'
p489
aS'11904'
p490
aS'12909'
p491
aS'12906'
p492
aS'12905'
p493
aS'12900'
p494
aS'12875'
p495
aS'12874'
p496
aS'12873'
p497
aS'12872'
p498
aS'12871'
p499
aS'12473'
p500
aS'12477'
p501
aS'12476'
p502
aS'12474'
p503
aS'12049'
p504
aS'11798'
p505
aS'12685'
p506
aS'12686'
p507
aS'12687'
p508
aS'12688'
p509
aS'11791'
p510
aS'11938'
p511
aS'11931'
p512
aS'11803'
p513
aS'11804'
p514
aS'12317'
p515
aS'11937'
p516
aS'11936'
p517
aS'11935'
p518
aS'11934'
p519
aS'11933'
p520
aS'11932'
p521
aS'12469'
p522
aS'12464'
p523
aS'12461'
p524
aS'11782'
p525
aS'11788'
p526
aS'12071'
p527
aS'12679'
p528
aS'12674'
p529
aS'12677'
p530
aS'12676'
p531
aS'12671'
p532
aS'12673'
p533
aS'12672'
p534
aS'12789'
p535
aS'12788'
p536
aS'12783'
p537
aS'12782'
p538
aS'12785'
p539
aS'12786'
p540
aS'11928'
p541
aS'11929'
p542
aS'12895'
p543
aS'12894'
p544
aS'12891'
p545
aS'12890'
p546
aS'12893'
p547
aS'12892'
p548
aS'12419'
p549
aS'12418'
p550
aS'12412'
p551
aS'12414'
p552
aS'12525'
p553
aS'12527'
p554
aS'12526'
p555
aS'12523'
p556
aS'12522'
p557
aS'12529'
p558
aS'12528'
p559
aS'12061'
p560
aS'12667'
p561
aS'12665'
p562
aS'12662'
p563
aS'12663'
p564
aS'12660'
p565
aS'12661'
p566
aS'12792'
p567
aS'12793'
p568
aS'12797'
p569
aS'12794'
p570
aS'12795'
p571
aS'12245'
p572
aS'12083'
p573
aS'12815'
p574
aS'12008'
p575
aS'12545'
p576
aS'11866'
p577
aS'12810'
p578
aS'12541'
p579
aS'12540'
p580
aS'12000'
p581
aS'12887'
p582
aS'12882'
p583
aS'12883'
p584
aS'12881'
p585
aS'12402'
p586
aS'12536'
p587
aS'12537'
p588
aS'12534'
p589
aS'12535'
p590
aS'12533'
p591
aS'12530'
p592
aS'12531'
p593
aS'12538'
p594
aS'12539'
p595
aS'12659'
p596
aS'12658'
p597
aS'12651'
p598
aS'12650'
p599
aS'12657'
p600
aS'11872'
p601
aS'11873'
p602
aS'11875'
p603
aS'11878'
p604
aS'12439'
p605
aS'12505'
p606
aS'12504'
p607
aS'12645'
p608
aS'12646'
p609
aS'12647'
p610
aS'12640'
p611
aS'12642'
p612
aS'12643'
p613
aS'12648'
p614
aS'12649'
p615
aS'12300'
p616
aS'11999'
p617
aS'11998'
p618
aS'11991'
p619
aS'11990'
p620
aS'11993'
p621
aS'11994'
p622
aS'11997'
p623
aS'11996'
p624
aS'11846'
p625
aS'11842'
p626
aS'12580'
p627
aS'12587'
p628
aS'12425'
p629
aS'12519'
p630
aS'12510'
p631
aS'12511'
p632
aS'12512'
p633
aS'12631'
p634
aS'12630'
p635
aS'12633'
p636
aS'12635'
p637
aS'12634'
p638
aS'12637'
p639
aS'12636'
p640
aS'12639'
p641
aS'12638'
p642
aS'12749'
p643
aS'12748'
p644
aS'12744'
p645
aS'12747'
p646
aS'12741'
p647
aS'12740'
p648
aS'12743'
p649
aS'12298'
p650
aS'11988'
p651
aS'11989'
p652
aS'11980'
p653
aS'11986'
p654
aS'11987'
p655
aS'11985'
p656
aS'11851'
p657
aS'12569'
p658
aS'12568'
p659
aS'12561'
p660
aS'12560'
p661
aS'12563'
p662
aS'12562'
p663
aS'12565'
p664
aS'12564'
p665
aS'12567'
p666
aS'12566'
p667
aS'12622'
p668
aS'12623'
p669
aS'12626'
p670
aS'12627'
p671
aS'12624'
p672
aS'12625'
p673
aS'12628'
p674
aS'12629'
p675
aS'12758'
p676
aS'12756'
p677
aS'12757'
p678
aS'12755'
p679
aS'12752'
p680
aS'12750'
p681
aS'12751'
p682
aS'12176'
p683
aS'12173'
p684
aS'12178'
p685
aS'11814'
p686
aS'11815'
p687
aS'11816'
p688
aS'12579'
p689
aS'12572'
p690
aS'12573'
p691
aS'12570'
p692
aS'12571'
p693
aS'12576'
p694
aS'12577'
p695
aS'12574'
p696
aS'12575'
p697
aS'12616'
p698
aS'12615'
p699
aS'12613'
p700
aS'12610'
p701
aS'12769'
p702
aS'12768'
p703
aS'12763'
p704
aS'12762'
p705
aS'12761'
p706
aS'12760'
p707
aS'12767'
p708
aS'12766'
p709
aS'12765'
p710
aS'12764'
p711
aS'12382'
p712
aS'12146'
p713
aS'12149'
p714
aS'11899'
p715
aS'11895'
p716
aS'11896'
p717
aS'11892'
p718
aS'11893'
p719
aS'12547'
p720
aS'12816'
p721
aS'12811'
p722
aS'12542'
p723
aS'12813'
p724
aS'12812'
p725
aS'12819'
p726
aS'12818'
p727
aS'12549'
p728
aS'12608'
p729
aS'12609'
p730
aS'12601'
p731
aS'12602'
p732
aS'12606'
p733
aS'12607'
p734
aS'12775'
p735
aS'12777'
p736
aS'12771'
p737
aS'12773'
p738
aS'12778'
p739
aS'11770'
p740
aS'12398'
p741
aS'12399'
p742
aS'12396'
p743
aS'12397'
p744
aS'12395'
p745
aS'12392'
p746
aS'11900'
p747
aS'12158'
p748
aS'12154'
p749
aS'12157'
p750
aS'12150'
p751
aS'12151'
p752
aS'12153'
p753
aS'12303'
p754
aS'11955'
p755
aS'11954'
p756
aS'11957'
p757
aS'11950'
p758
aS'11952'
p759
aS'12807'
p760
aS'12804'
p761
aS'12805'
p762
aS'12802'
p763
aS'12803'
p764
aS'12544'
p765
aS'12543'
p766
aS'11930'
p767
aS'12550'
p768
aS'12551'
p769
aS'12552'
p770
aS'12553'
p771
aS'12554'
p772
aS'12555'
p773
aS'12556'
p774
aS'12557'
p775
aS'12558'
p776
aS'12559'
p777
aS'12809'
p778
aa(lp779
S'348'
p780
aS'349'
p781
aS'271'
p782
aS'277'
p783
aS'278'
p784
ag19
aS'1132'
p785
aS'1004'
p786
aS'109'
p787
aS'99'
p788
aS'98'
p789
aS'1622'
p790
aS'552'
p791
ag24
aS'1759'
p792
ag26
aS'1755'
p793
ag28
aS'1751'
p794
ag29
aS'1177'
p795
ag32
ag35
aS'1344'
p796
aS'1345'
p797
aS'1245'
p798
aS'242'
p799
aS'172'
p800
ag46
aS'1506'
p801
ag48
ag50
ag54
aS'1764'
p802
aS'1765'
p803
aS'1144'
p804
ag56
aS'692'
p805
ag60
ag62
ag65
aS'365'
p806
aS'384'
p807
aS'386'
p808
aS'250'
p809
aS'251'
p810
aS'257'
p811
ag69
aS'1841'
p812
aS'1810'
p813
ag70
ag75
aS'1774'
p814
ag78
ag79
ag80
ag81
ag82
ag91
aS'1399'
p815
aS'224'
p816
aS'151'
p817
aS'1805'
p818
ag95
aS'817'
p819
ag98
aS'1494'
p820
aS'1700'
p821
ag101
ag102
aS'1703'
p822
aS'1126'
p823
aS'439'
p824
aS'237'
p825
aS'230'
p826
ag118
ag121
aS'796'
p827
aS'1717'
p828
aS'798'
p829
ag125
ag126
ag127
aS'1277'
p830
aS'511'
p831
aS'1006'
p832
ag130
ag132
aS'205'
p833
aS'1572'
p834
aS'1575'
p835
aS'1829'
p836
ag136
ag140
ag141
ag142
aS'1729'
p837
ag143
aS'1588'
p838
aS'1370'
p839
aS'1584'
p840
ag146
ag149
aS'1218'
p841
aS'400'
p842
ag154
ag156
ag157
ag160
ag161
ag163
aS'1739'
p843
ag167
ag168
aS'1732'
p844
aS'662'
p845
ag170
ag171
aS'1736'
p846
aS'1033'
p847
aS'1030'
p848
aS'1023'
p849
ag181
aS'603'
p850
aS'1205'
p851
ag6
aS'634'
p852
aS'1447'
p853
ag186
ag187
aS'464'
p854
aS'1119'
p855
aS'1118'
p856
aS'1448'
p857
aS'1219'
p858
aS'487'
p859
ag7
aS'199'
p860
aS'196'
p861
aS'191'
p862
aS'1102'
p863
ag191
ag194
aS'853'
p864
aS'425'
p865
ag196
ag201
ag202
aS'1693'
p866
aS'1691'
p867
aS'1791'
p868
aS'1278'
p869
aS'1276'
p870
aS'1304'
p871
ag210
ag211
aS'1307'
p872
aS'184'
p873
ag225
aS'774'
p874
ag226
ag227
ag229
ag232
ag233
aS'1684'
p875
ag235
aS'1686'
p876
aS'664'
p877
aS'1264'
p878
aS'1316'
p879
aS'1313'
p880
aS'312'
p881
aS'314'
p882
aS'1861'
p883
ag239
ag241
ag242
aS'893'
p884
aS'1246'
p885
aS'649'
p886
ag12
ag249
aS'1671'
p887
aS'1672'
p888
aS'1673'
p889
aS'1095'
p890
ag256
aS'1322'
p891
aS'1520'
p892
aS'1521'
p893
aS'1250'
p894
aS'953'
p895
aS'1261'
p896
ag266
aS'661'
p897
ag14
aS'1062'
p898
aS'1667'
p899
aS'1662'
p900
aS'1660'
p901
ag269
aS'1404'
p902
ag271
aS'1544'
p903
aS'39'
p904
ag272
aS'1249'
p905
aS'1248'
p906
ag274
aS'1538'
p907
aS'338'
p908
ag276
aS'1883'
p909
ag277
aS'89'
p910
aS'1653'
p911
ag283
aS'459'
p912
aS'450'
p913
aS'652'
p914
aS'1508'
p915
aS'328'
p916
aS'329'
p917
ag290
ag292
ag294
ag295
ag296
aS'1644'
p918
ag300
ag304
ag15
aS'739'
p919
aS'468'
p920
ag310
aS'1517'
p921
aS'1510'
p922
ag313
aS'281'
p923
aS'1735'
p924
ag314
aS'282'
p925
aS'263'
p926
aS'264'
p927
aS'1290'
p928
ag319
aS'114'
p929
ag323
aS'1630'
p930
aS'1636'
p931
aS'1637'
p932
ag327
aS'1187'
p933
ag334
aS'1744'
p934
ag335
aS'1746'
p935
ag336
ag337
aS'1741'
p936
ag338
ag339
aS'1168'
p937
ag340
aS'1292'
p938
aS'1566'
p939
aS'1713'
p940
ag341
ag342
ag343
aS'1201'
p941
aS'475'
p942
ag350
ag351
ag353
ag354
ag356
ag357
ag358
ag359
aS'12120'
p943
ag370
aS'12237'
p944
aS'12940'
p945
ag379
aS'11867'
p946
aS'12712'
p947
ag387
ag388
ag389
ag390
ag391
ag392
ag394
ag413
ag416
aS'12727'
p948
ag420
aS'12103'
p949
ag16
aS'12921'
p950
aS'12926'
p951
aS'12852'
p952
ag440
ag444
ag445
aS'12737'
p953
ag449
ag451
aS'12112'
p954
aS'12119'
p955
aS'12683'
p956
aS'12931'
p957
ag465
aS'12054'
p958
aS'12057'
p959
ag483
ag484
aS'11839'
p960
aS'11832'
p961
aS'11905'
p962
ag496
ag504
ag512
aS'12264'
p963
ag516
ag519
ag520
ag530
aS'12781'
p964
aS'12780'
p965
ag538
aS'12784'
p966
aS'12250'
p967
aS'11926'
p968
aS'11819'
p969
ag548
aS'12068'
p970
aS'12063'
p971
aS'12064'
p972
aS'12798'
p973
ag567
aS'12790'
p974
aS'12791'
p975
ag569
ag570
aS'12241'
p976
ag572
aS'12248'
p977
aS'12249'
p978
ag573
aS'12089'
p979
ag578
ag581
ag583
ag592
ag596
ag599
aS'11877'
p980
ag604
ag617
ag620
aS'11995'
p981
ag625
aS'11841'
p982
ag643
ag644
aS'12746'
p983
ag649
aS'12742'
p984
aS'11852'
p985
ag665
ag676
aS'12759'
p986
ag678
aS'12754'
p987
ag679
ag681
ag682
aS'12177'
p988
aS'12174'
p989
ag684
ag685
aS'11881'
p990
aS'11880'
p991
aS'11885'
p992
aS'11888'
p993
ag687
ag688
aS'11817'
p994
ag691
ag702
ag705
ag706
ag707
ag708
ag709
ag710
aS'12148'
p995
ag715
aS'11897'
p996
aS'11890'
p997
ag718
aS'12817'
p998
ag724
ag727
ag735
aS'12776'
p999
ag736
aS'12779'
p1000
ag760
ag761
aS'12033'
p1001
ag762
ag763
ag764
aS'12800'
p1002
ag768
ag769
aS'12808'
p1003
aa(lp1004
S'344'
p1005
aS'298'
p1006
aS'292'
p1007
ag782
aS'275'
p1008
aS'276'
p1009
aS'102'
p1010
aS'107'
p1011
aS'104'
p1012
aS'1212'
p1013
aS'92'
p1014
aS'94'
p1015
aS'97'
p1016
ag790
aS'1620'
p1017
aS'1627'
p1018
aS'1626'
p1019
aS'1629'
p1020
ag22
aS'557'
p1021
aS'556'
p1022
ag23
ag24
ag26
ag794
ag30
aS'1175'
p1023
ag32
ag34
ag35
ag36
aS'510'
p1024
ag38
aS'685'
p1025
aS'684'
p1026
aS'687'
p1027
aS'686'
p1028
ag44
aS'408'
p1029
aS'453'
p1030
aS'373'
p1031
aS'393'
p1032
aS'391'
p1033
aS'390'
p1034
aS'395'
p1035
aS'394'
p1036
aS'399'
p1037
aS'245'
p1038
aS'240'
p1039
aS'171'
p1040
ag46
aS'651'
p1041
aS'1618'
p1042
aS'1619'
p1043
ag49
aS'1611'
p1044
aS'1140'
p1045
ag55
ag804
ag56
aS'1148'
p1046
aS'693'
p1047
aS'1542'
p1048
ag58
aS'694'
p1049
aS'540'
p1050
ag62
ag63
aS'414'
p1051
aS'410'
p1052
aS'411'
p1053
ag65
ag66
aS'1382'
p1054
ag67
aS'381'
p1055
aS'383'
p1056
aS'387'
p1057
aS'258'
p1058
aS'252'
p1059
ag810
ag68
ag69
aS'168'
p1060
aS'166'
p1061
aS'1609'
p1062
aS'1771'
p1063
aS'1772'
p1064
ag76
ag77
ag78
ag79
ag80
ag81
ag82
ag83
ag84
aS'59'
p1065
aS'54'
p1066
aS'52'
p1067
aS'537'
p1068
aS'55'
p1069
ag89
aS'533'
p1070
ag90
ag91
ag815
aS'423'
p1071
aS'426'
p1072
aS'222'
p1073
aS'152'
p1074
aS'155'
p1075
ag96
aS'814'
p1076
ag97
ag98
ag821
ag101
ag102
ag822
aS'1705'
p1077
aS'1706'
p1078
aS'1708'
p1079
ag103
ag104
ag107
ag108
aS'525'
p1080
aS'527'
p1081
ag111
ag112
aS'1017'
p1082
ag113
ag114
aS'1232'
p1083
aS'436'
p1084
aS'437'
p1085
aS'435'
p1086
ag825
aS'1'
p1087
aS'143'
p1088
aS'141'
p1089
ag116
aS'1831'
p1090
aS'1835'
p1091
aS'931'
p1092
ag121
ag122
aS'1486'
p1093
aS'1488'
p1094
ag828
ag124
aS'1131'
p1095
ag125
ag126
ag127
aS'1135'
p1096
aS'519'
p1097
ag831
ag130
ag131
ag132
aS'11'
p1098
aS'15'
p1099
aS'14'
p1100
aS'16'
p1101
aS'19'
p1102
ag834
ag135
ag835
ag836
ag136
aS'921'
p1103
aS'922'
p1104
aS'925'
p1105
aS'926'
p1106
aS'1728'
p1107
ag837
aS'1726'
p1108
aS'1724'
p1109
ag143
aS'1720'
p1110
aS'1371'
p1111
ag145
aS'1586'
p1112
ag146
aS'404'
p1113
aS'508'
p1114
ag149
ag151
ag152
aS'636'
p1115
aS'637'
p1116
ag841
ag156
aS'1101'
p1117
aS'788'
p1118
aS'217'
p1119
aS'214'
p1120
aS'210'
p1121
aS'219'
p1122
aS'462'
p1123
aS'4'
p1124
ag162
aS'919'
p1125
aS'910'
p1126
aS'841'
p1127
aS'840'
p1128
ag167
aS'752'
p1129
ag175
aS'754'
p1130
aS'1597'
p1131
aS'1591'
p1132
ag848
ag178
ag181
aS'1029'
p1133
aS'1028'
p1134
aS'501'
p1135
ag183
ag184
aS'606'
p1136
ag5
ag850
ag851
aS'1210'
p1137
aS'1203'
p1138
aS'633'
p1139
aS'635'
p1140
ag857
aS'195'
p1141
aS'193'
p1142
aS'1107'
p1143
ag190
ag863
ag191
aS'903'
p1144
aS'1842'
p1145
ag195
ag864
ag197
ag198
ag199
ag200
ag201
aS'1059'
p1146
aS'1692'
p1147
ag866
aS'1690'
p1148
ag867
aS'1699'
p1149
aS'1270'
p1150
ag870
ag207
aS'1472'
p1151
ag215
aS'494'
p1152
aS'490'
p1153
aS'24'
p1154
aS'23'
p1155
ag216
aS'446'
p1156
aS'1084'
p1157
ag221
aS'972'
p1158
aS'186'
p1159
aS'185'
p1160
aS'867'
p1161
aS'883'
p1162
ag225
ag874
aS'772'
p1163
aS'779'
p1164
ag226
ag227
ag228
ag229
ag231
aS'669'
p1165
aS'668'
p1166
ag237
aS'665'
p1167
ag11
aS'315'
p1168
aS'1862'
p1169
aS'1864'
p1170
ag239
aS'1869'
p1171
ag240
ag241
aS'1535'
p1172
ag242
ag884
aS'894'
p1173
aS'898'
p1174
ag886
ag12
ag246
ag247
aS'766'
p1175
ag249
aS'1078'
p1176
ag252
ag253
ag254
aS'1677'
p1177
ag255
ag256
ag257
aS'679'
p1178
aS'674'
p1179
aS'677'
p1180
aS'670'
p1181
aS'672'
p1182
ag892
ag260
aS'1528'
p1183
aS'956'
p1184
aS'477'
p1185
ag262
ag896
ag264
aS'718'
p1186
aS'715'
p1187
aS'710'
p1188
aS'1060'
p1189
ag14
ag898
ag267
aS'1666'
p1190
aS'1665'
p1191
ag900
aS'592'
p1192
aS'1081'
p1193
aS'443'
p1194
aS'441'
p1195
aS'447'
p1196
aS'33'
p1197
aS'32'
p1198
aS'36'
p1199
aS'1537'
p1200
ag272
ag274
ag276
aS'1353'
p1201
aS'948'
p1202
aS'133'
p1203
aS'137'
p1204
aS'135'
p1205
aS'134'
p1206
aS'139'
p1207
aS'708'
p1208
aS'709'
p1209
aS'704'
p1210
aS'700'
p1211
aS'703'
p1212
aS'81'
p1213
aS'1652'
p1214
ag280
aS'1431'
p1215
ag912
aS'1346'
p1216
ag285
aS'658'
p1217
ag916
aS'1592'
p1218
aS'1598'
p1219
aS'995'
p1220
aS'994'
p1221
ag290
ag292
ag293
ag295
aS'125'
p1222
ag296
aS'1642'
p1223
aS'1649'
p1224
aS'578'
p1225
aS'573'
p1226
ag301
aS'571'
p1227
ag15
aS'1425'
p1228
ag306
aS'731'
p1229
aS'733'
p1230
aS'736'
p1231
aS'463'
p1232
aS'608'
p1233
ag311
ag312
aS'1511'
p1234
ag922
ag313
ag923
ag314
ag315
aS'283'
p1235
aS'1114'
p1236
ag317
ag319
aS'116'
p1237
aS'113'
p1238
ag324
aS'1633'
p1239
ag931
ag325
ag327
aS'560'
p1240
aS'564'
p1241
aS'565'
p1242
ag328
aS'1186'
p1243
ag329
ag330
aS'726'
p1244
aS'727'
p1245
ag333
ag338
ag339
aS'1161'
p1246
ag937
ag340
aS'46'
p1247
aS'44'
p1248
aS'43'
p1249
aS'1565'
p1250
aS'1567'
p1251
ag940
ag342
ag941
aS'1368'
p1252
aS'1369'
p1253
aS'12129'
p1254
ag943
ag367
ag370
aS'13051'
p1255
ag946
aS'11751'
p1256
aS'12139'
p1257
aS'12130'
p1258
aS'12131'
p1259
aS'12136'
p1260
aS'12134'
p1261
aS'11746'
p1262
aS'12106'
p1263
ag949
aS'12102'
p1264
aS'12101'
p1265
aS'12115'
p1266
ag452
aS'12584'
p1267
ag455
aS'11826'
p1268
aS'11823'
p1269
aS'13085'
p1270
aS'13086'
p1271
aS'11911'
p1272
aS'11910'
p1273
ag458
aS'12059'
p1274
aS'11836'
p1275
aS'13092'
p1276
aS'13093'
p1277
ag489
aS'11907'
p1278
ag490
ag497
aS'11794'
p1279
aS'11939'
p1280
ag511
aS'11808'
p1281
aS'11802'
p1282
ag516
ag517
ag518
ag521
ag527
aS'12092'
p1283
ag541
ag968
aS'11818'
p1284
ag555
ag564
aS'12085'
p1285
aS'12546'
p1286
aS'11861'
p1287
aS'11863'
p1288
aS'11868'
p1289
ag580
ag587
ag588
ag589
ag590
aS'12532'
p1290
ag591
ag593
ag595
ag599
ag601
ag602
aS'11876'
p1291
aS'11874'
p1292
aS'12072'
p1293
ag610
ag614
ag616
aS'11992'
p1294
aS'11848'
p1295
aS'13005'
p1296
ag628
aS'12299'
p1297
ag985
aS'11887'
p1298
ag992
aS'11889'
p1299
ag993
ag686
ag687
ag688
ag994
aS'11812'
p1300
aS'11813'
p1301
ag701
aS'12143'
p1302
aS'12141'
p1303
aS'12147'
p1304
ag713
aS'12144'
p1305
ag714
aS'11898'
p1306
aS'11894'
p1307
ag716
ag997
aS'11891'
p1308
aS'13039'
p1309
aS'12548'
p1310
ag731
ag749
ag751
ag752
ag753
aS'12302'
p1311
ag765
aS'13043'
p1312
ag772
ag773
ag777
aa.