(lp0
(lp1
I1189
aI511
aI768
aI800
aI7
aI603
aI609
aI323
aI552
aI1311
aI682
aI1441
aa(lp2
I1642
aI940
aI1497
aI1106
aI1110
aI1623
aI1622
aI1621
aI1620
aI1616
aI1615
aI1614
aI1092
aI1090
aI1089
aI1088
aI1087
aI1086
aI1094
aI942
aI1192
aI1197
aI1196
aI642
aI1138
aI584
aI1133
aI586
aI1271
aI1238
aI1241
aI173
aI618
aI1376
aI1379
aI1483
aI1632
aI1626
aI1627
aI1625
aI1630
aI1631
aI1063
aI1062
aI1065
aI1415
aI1416
aI1414
aI1421
aI515
aI520
aI518
aI521
aI1646
aI399
aI1277
aI1278
aI1273
aI1274
aI1276
aI1001
aI841
aI1677
aI1670
aI1678
aI1679
aI1479
aI1478
aI1477
aI760
aI754
aI756
aI1635
aI1075
aI1072
aI1074
aI1068
aI1067
aI1070
aI1427
aI1423
aI1425
aI1424
aI1429
aI1431
aI52
aI510
aI513
aI1290
aI1289
aI1667
aI1665
aI1668
aI1397
aI1398
aI767
aI1368
aI1567
aI1569
aI1045
aI1046
aI1037
aI1038
aI1040
aI1041
aI1043
aI1044
aI502
aI499
aI949
aI946
aI1145
aI421
aI1689
aI1696
aI1693
aI1563
aI1698
aI773
aI1364
aI1363
aI746
aI743
aI1055
aI1047
aI1054
aI1053
aI1184
aI944
aI943
aI490
aI937
aI1139
aI1136
aI587
aI1132
aI1445
aI1442
aI1449
aI1688
aI1683
aI1682
aI861
aI862
aI787
aI737
aI739
aI1588
aI1264
aI1460
aI1455
aI1453
aI970
aI969
aI967
aI1124
aI1122
aI1123
aI599
aI1027
aI1025
aI1024
aI1022
aI1344
aI1030
aI1709
aI1713
aI1714
aI852
aI1459
aI1595
aI1599
aI1601
aI705
aI711
aI1462
aI1465
aI1471
aI956
aI963
aI954
aI968
aI966
aI571
aI573
aI566
aI1117
aI1115
aI1328
aI1246
aI1336
aI1707
aI1699
aI978
aI981
aI982
aI986
aI1562
aI673
aI1187
aI582
aI1180
aI579
aI1209
aI1210
aI1211
aI1204
aI1206
aI1212
aI1213
aI1007
aI1735
aI183
aI816
aI815
aI830
aI729
aI972
aI975
aI974
aI973
aI1551
aI1553
aI626
aI1349
aI1220
aI1393
aI592
aI1725
aI1410
aI819
aI818
aI603
aI838
aI722
aI1643
aI1409
aI718
aI1540
aI1541
aI1542
aI1538
aI1017
aI1018
aI1020
aI1406
aI1223
aI1167
aI1162
aI1395
aI1401
aI1402
aI291
aI896
aI895
aI1329
aI1659
aI676
aI1652
aI1656
aI1655
aI990
aI991
aI1531
aI1008
aI1295
aI1236
aI1151
aI609
aI1412
aI326
aI958
aI1350
aI1741
aI133
aI664
aI1519
aI1380
aI1381
aI933
aI928
aI935
aI1509
aI1512
aI1511
aI1518
aI1517
aI544
aI1309
aI1308
aI1311
aI1317
aI1316
aI694
aI1252
aI1387
aI1385
aI550
aI336
aI924
aI919
aI920
aI917
aI918
aI923
aI107
aI1657
aI1281
aI1501
aI1502
aI1506
aI1507
aI540
aI532
aI1104
aI1102
aI1099
aI1096
aI1097
aI682
aI1612
aI1609
aI1610
aI1611
aI1605
aI1607
aI1081
aI1083
aI1078
aI1084
aI1085
aI1440
aI1432
aI1198
aI1578
aI1581
aI1114
aI1580
aI1254
aI2701
aI2700
aI2703
aI2702
aI2705
aI2704
aI2707
aI2706
aI2709
aI2708
aI2018
aI2014
aI2010
aI1948
aI1949
aI1946
aI1947
aI1944
aI1942
aI1943
aI1940
aI1941
aI2493
aI2492
aI2495
aI2494
aI2499
aI2832
aI2831
aI2830
aI2837
aI2836
aI2835
aI2834
aI2838
aI1867
aI2712
aI2713
aI2710
aI2711
aI2716
aI2717
aI2714
aI2715
aI2718
aI2719
aI2004
aI2137
aI1979
aI1972
aI1970
aI1976
aI2227
aI2483
aI2480
aI2828
aI2829
aI2824
aI2825
aI2826
aI2820
aI2821
aI2822
aI2823
aI2729
aI2728
aI2726
aI2725
aI2724
aI2723
aI2721
aI2720
aI2039
aI1746
aI2035
aI1965
aI1967
aI1963
aI1969
aI2925
aI2924
aI2588
aI2851
aI2582
aI2581
aI2852
aI2855
aI2585
aI2738
aI2739
aI2730
aI2731
aI2732
aI2733
aI2735
aI2736
aI2020
aI2021
aI2689
aI2583
aI2853
aI2117
aI2119
aI2586
aI2857
aI1824
aI1821
aI1913
aI1914
aI2933
aI2594
aI2596
aI2597
aI2590
aI2591
aI2598
aI2848
aI2849
aI2842
aI2843
aI2840
aI2846
aI2847
aI2844
aI2845
aI2440
aI2448
aI2058
aI2697
aI2696
aI2695
aI2694
aI2693
aI2692
aI2690
aI2699
aI1838
aI1834
aI1832
aI1902
aI1901
aI1904
aI1905
aI1909
aI2876
aI2875
aI2874
aI2873
aI2872
aI2871
aI2870
aI2473
aI2471
aI2470
aI2477
aI2476
aI2474
aI2049
aI2681
aI2682
aI2684
aI2685
aI2686
aI1791
aI1939
aI1938
aI2269
aI1931
aI2263
aI1803
aI1806
aI1937
aI1936
aI1935
aI1934
aI1933
aI1932
aI2862
aI2469
aI2464
aI1788
aI2071
aI2070
aI2679
aI2674
aI2677
aI2676
aI2671
aI2673
aI2672
aI2789
aI2788
aI2781
aI2783
aI2782
aI2785
aI2787
aI2786
aI2253
aI2259
aI1928
aI1929
aI1922
aI1926
aI1818
aI2895
aI2894
aI2891
aI2893
aI2892
aI2412
aI2414
aI2525
aI2527
aI2526
aI2523
aI2522
aI2529
aI2528
aI2068
aI2065
aI2669
aI2664
aI2662
aI2663
aI2660
aI2661
aI2792
aI2793
aI2790
aI2796
aI2797
aI2794
aI2795
aI2247
aI2248
aI2086
aI2087
aI2083
aI2009
aI1869
aI2810
aI2541
aI2540
aI2000
aI2888
aI2889
aI2886
aI2887
aI2884
aI2885
aI2882
aI2883
aI2536
aI2537
aI2534
aI2535
aI2532
aI2533
aI2530
aI2531
aI2538
aI2539
aI2658
aI2651
aI2650
aI2657
aI2656
aI2654
aI1872
aI1877
aI1875
aI1878
aI2431
aI2439
aI2501
aI2072
aI2644
aI2640
aI2642
aI2643
aI2648
aI1999
aI1991
aI1990
aI1993
aI1992
aI1995
aI1994
aI1849
aI1848
aI1842
aI1840
aI3003
aI2580
aI2587
aI2519
aI2511
aI2512
aI2630
aI2633
aI2634
aI2637
aI2636
aI2639
aI2638
aI2749
aI2748
aI2744
aI2747
aI2741
aI2740
aI2743
aI2742
aI2164
aI1988
aI1989
aI1986
aI1987
aI1854
aI2155
aI1956
aI2569
aI2568
aI2561
aI2560
aI2562
aI2565
aI2564
aI2567
aI2566
aI2622
aI2620
aI2627
aI2624
aI2625
aI2628
aI2758
aI2756
aI2757
aI2754
aI2755
aI2752
aI2753
aI2750
aI1880
aI1889
aI1815
aI1816
aI1817
aI2579
aI2572
aI2573
aI2570
aI2571
aI2576
aI2577
aI2574
aI2575
aI2619
aI2618
aI2617
aI2616
aI2614
aI2613
aI2612
aI2611
aI2610
aI2769
aI2768
aI2762
aI2767
aI2766
aI2765
aI2382
aI2144
aI2148
aI1896
aI1891
aI1892
aI1893
aI2961
aI2547
aI2814
aI2816
aI2811
aI2542
aI2812
aI2819
aI2818
aI2549
aI2608
aI2609
aI2601
aI2602
aI2603
aI2606
aI2775
aI2770
aI2771
aI2772
aI2773
aI2778
aI2779
aI1770
aI2398
aI2396
aI2395
aI2158
aI2154
aI2156
aI2157
aI2150
aI2151
aI2152
aI1955
aI2302
aI1950
aI1952
aI2806
aI2807
aI2804
aI2805
aI2802
aI2544
aI2543
aI1930
aI2550
aI2551
aI2552
aI2553
aI2554
aI2555
aI2556
aI2559
aI2809
aa(lp3
I261
aI266
aI267
aI1049
aI104
aI1491
aI1496
aI1623
aI1622
aI1619
aI1618
aI1615
aI1614
aI1093
aI1092
aI1089
aI1094
aI1192
aI1197
aI586
aI1267
aI385
aI393
aI435
aI364
aI234
aI170
aI1488
aI1481
aI1632
aI1627
aI1630
aI1631
aI1628
aI1629
aI1416
aI655
aI515
aI1646
aI349
aI371
aI1163
aI242
aI248
aI247
aI1670
aI1678
aI1679
aI754
aI753
aI756
aI1075
aI1071
aI1070
aI47
aI512
aI505
aI513
aI1290
aI218
aI217
aI1665
aI1662
aI1668
aI1400
aI768
aI1160
aI1370
aI1371
aI1568
aI1569
aI1572
aI1283
aI1037
aI1041
aI949
aI1145
aI230
aI1689
aI1563
aI878
aI871
aI743
aI750
aI1048
aI1184
aI194
aI1443
aI1447
aI1686
aI1683
aI1682
aI861
aI782
aI789
aI733
aI1591
aI1589
aI1586
aI1460
aI1456
aI967
aI1025
aI1024
aI1022
aI1344
aI1717
aI1714
aI790
aI440
aI1604
aI1595
aI1597
aI1599
aI1602
aI1601
aI971
aI965
aI962
aI959
aI955
aI968
aI573
aI568
aI1118
aI1126
aI1033
aI1032
aI432
aI464
aI460
aI193
aI185
aI187
aI1342
aI1339
aI405
aI1707
aI1700
aI804
aI800
aI801
aI985
aI1562
aI1558
aI1186
aI1209
aI1732
aI815
aI832
aI69
aI972
aI975
aI1546
aI1549
aI1552
aI1171
aI1176
aI1174
aI7
aI1347
aI1220
aI1215
aI1393
aI1230
aI1232
aI1719
aI1410
aI821
aI819
aI817
aI835
aI1158
aI1647
aI718
aI1538
aI1539
aI1016
aI1017
aI1223
aI1222
aI1404
aI1167
aI1162
aI1394
aI1395
aI1402
aI1168
aI295
aI1660
aI1652
aI989
aI992
aI1535
aI1009
aI1231
aI1155
aI609
aI1412
aI1411
aI325
aI1350
aI1741
aI1740
aI1634
aI1527
aI1522
aI552
aI434
aI438
aI1377
aI1380
aI1381
aI1382
aI314
aI316
aI928
aI1613
aI1514
aI1513
aI1308
aI449
aI1390
aI1383
aI1385
aI271
aI272
aI276
aI255
aI260
aI1438
aI920
aI918
aI105
aI1657
aI1503
aI1506
aI540
aI1612
aI1609
aI1610
aI1611
aI1605
aI1606
aI1607
aI1085
aI43
aI1579
aI1253
aI1578
aI1577
aI1114
aI454
aI452
aI1254
aI456
aI2701
aI2700
aI2703
aI2702
aI2705
aI2704
aI2707
aI2706
aI2709
aI2708
aI2014
aI2120
aI1947
aI1945
aI2235
aI2237
aI2232
aI2239
aI2238
aI2830
aI2836
aI2834
aI2712
aI2710
aI2711
aI2716
aI2717
aI2719
aI1970
aI2821
aI2729
aI2728
aI2727
aI2726
aI2725
aI2724
aI2720
aI2102
aI2852
aI2585
aI2738
aI2730
aI2731
aI2689
aI2853
aI2116
aI2586
aI2683
aI1821
aI3089
aI3088
aI1911
aI1910
aI1865
aI2842
aI2840
aI2059
aI2699
aI2698
aI1903
aI1907
aI1905
aI2049
aI1939
aI1931
aI1937
aI1933
aI2781
aI2780
aI2783
aI2782
aI2784
aI2787
aI2252
aI2250
aI2094
aI2097
aI2090
aI1929
aI1818
aI1819
aI2891
aI2890
aI2892
aI2069
aI2791
aI2794
aI2245
aI2247
aI2248
aI2249
aI1868
aI2810
aI2889
aI2880
aI1999
aI1990
aI1992
aI1994
aI1997
aI1846
aI1841
aI2580
aI2185
aI2749
aI2748
aI2745
aI2740
aI2743
aI1850
aI2564
aI2566
aI2758
aI2759
aI2756
aI2757
aI2754
aI2755
aI2752
aI2753
aI2751
aI2177
aI2174
aI2173
aI2178
aI1881
aI1888
aI2574
aI2769
aI2762
aI2761
aI2760
aI2766
aI2765
aI2148
aI1894
aI1897
aI1890
aI2817
aI2813
aI2812
aI2818
aI2774
aI2776
aI2777
aI2770
aI2771
aI2772
aI1900
aI2806
aI2804
aI2805
aI2802
aI2803
aI2800
aI1930
aI2558
aI2808
aa(lp4
I288
aI267
aI268
aI98
aI99
aI88
aI92
aI1492
aI1491
aI1489
aI1496
aI1495
aI1498
aI531
aI528
aI1106
aI1109
aI1623
aI1622
aI1091
aI1090
aI1089
aI1088
aI1087
aI1086
aI1095
aI1094
aI487
aI1194
aI1450
aI643
aI642
aI645
aI639
aI584
aI586
aI393
aI1238
aI435
aI1241
aI358
aI361
aI378
aI233
aI173
aI618
aI1488
aI1481
aI1632
aI1631
aI1062
aI1065
aI1066
aI1415
aI1416
aI656
aI514
aI520
aI518
aI521
aI399
aI400
aI395
aI396
aI398
aI1273
aI1276
aI354
aI367
aI373
aI247
aI162
aI160
aI1677
aI1679
aI1479
aI1474
aI1006
aI1635
aI1075
aI1071
aI1074
aI1073
aI1068
aI1067
aI1070
aI1069
aI1427
aI1424
aI56
aI52
aI508
aI513
aI1290
aI410
aI219
aI146
aI762
aI767
aI1368
aI1567
aI1571
aI1572
aI1574
aI1045
aI1046
aI1037
aI1042
aI1044
aI501
aI502
aI499
aI950
aI946
aI947
aI1147
aI419
aI420
aI418
aI416
aI413
aI227
aI229
aI222
aI140
aI1689
aI878
aI773
aI1364
aI1363
aI1365
aI1582
aI743
aI1048
aI1053
aI1052
aI495
aI488
aI937
aI1137
aI588
aI590
aI18
aI194
aI1447
aI1688
aI1683
aI1682
aI862
aI865
aI866
aI789
aI1594
aI1591
aI1589
aI1588
aI1586
aI61
aI1458
aI1457
aI389
aI485
aI969
aI967
aI1128
aI597
aI1269
aI1027
aI1028
aI1025
aI1023
aI1024
aI1021
aI1344
aI740
aI210
aI209
aI1709
aI860
aI859
aI851
aI853
aI796
aI791
aI440
aI1459
aI1597
aI1599
aI707
aI711
aI712
aI1467
aI964
aI1469
aI1463
aI1465
aI965
aI957
aI956
aI968
aI960
aI571
aI573
aI566
aI1117
aI1118
aI574
aI1126
aI1031
aI1032
aI433
aI653
aI190
aI184
aI187
aI844
aI1708
aI1707
aI847
aI1701
aI803
aI806
aI979
aI981
aI984
aI987
aI1562
aI1559
aI1556
aI1565
aI582
aI576
aI579
aI668
aI667
aI1206
aI471
aI473
aI474
aI23
aI22
aI27
aI909
aI916
aI915
aI180
aI179
aI816
aI829
aI832
aI726
aI732
aI69
aI972
aI974
aI973
aI977
aI976
aI1546
aI1551
aI1550
aI629
aI628
aI627
aI626
aI1171
aI621
aI7
aI1220
aI299
aI305
aI1393
aI427
aI388
aI1725
aI902
aI904
aI1410
aI820
aI817
aI603
aI834
aI835
aI836
aI1156
aI722
aI718
aI719
aI1002
aI1000
aI997
aI1544
aI1540
aI1542
aI1543
aI1537
aI1015
aI1017
aI637
aI636
aI630
aI1223
aI1222
aI1404
aI1401
aI295
aI675
aI1655
aI990
aI1533
aI1530
aI1008
aI559
aI1005
aI563
aI671
aI651
aI424
aI649
aI652
aI31
aI29
aI1151
aI604
aI610
aI609
aI1412
aI318
aI1740
aI885
aI128
aI132
aI129
aI665
aI666
aI661
aI664
aI657
aI658
aI659
aI1523
aI551
aI1319
aI1243
aI1600
aI611
aI612
aI619
aI316
aI1464
aI933
aI932
aI934
aI121
aI122
aI1613
aI1513
aI1515
aI1694
aI1518
aI549
aI543
aI542
aI1311
aI1317
aI688
aI690
aI694
aI693
aI1247
aI443
aI1388
aI1384
aI1383
aI550
aI343
aI336
aI275
aI254
aI260
aI920
aI917
aI111
aI105
aI1501
aI1503
aI540
aI532
aI536
aI537
aI1104
aI1102
aI1098
aI1099
aI1096
aI683
aI684
aI682
aI1612
aI1607
aI1081
aI1082
aI1083
aI1084
aI45
aI40
aI39
aI1437
aI1439
aI1578
aI1581
aI1114
aI1580
aI1260
aI455
aI1262
aI1762
aI2121
aI2120
aI1940
aI1867
aI2710
aI1757
aI2131
aI2136
aI1747
aI2102
aI2109
aI2581
aI1799
aI2115
aI1824
aI1826
aI1821
aI1820
aI1823
aI3089
aI3085
aI3087
aI3086
aI2595
aI2598
aI2059
aI1836
aI1832
aI3092
aI3093
aI1902
aI1903
aI1901
aI1907
aI1796
aI1794
aI1939
aI1938
aI1931
aI1808
aI1937
aI1936
aI1932
aI2075
aI2074
aI2097
aI1928
aI1926
aI2523
aI2528
aI2068
aI2085
aI1863
aI1868
aI2541
aI2540
aI2536
aI2534
aI2535
aI2532
aI2531
aI2539
aI2650
aI2657
aI1872
aI1876
aI2072
aI2647
aI2648
aI2300
aI1991
aI1993
aI3005
aI3004
aI2631
aI2630
aI2634
aI2299
aI1852
aI2567
aI2627
aI1881
aI1880
aI1885
aI1889
aI1888
aI3025
aI1814
aI2570
aI2612
aI2141
aI2147
aI2146
aI2144
aI2149
aI1898
aI1894
aI1895
aI1896
aI1897
aI1890
aI1891
aI2542
aI2159
aI2150
aI2151
aI2153
aI2303
aI2302
aI1930
aI2559
aa.